
ctarget:     file format elf64-x86-64


Disassembly of section .init:

0000000000400c08 <_init>:
  400c08:	48 83 ec 08          	sub    $0x8,%rsp
  400c0c:	e8 5b 02 00 00       	callq  400e6c <call_gmon_start>
  400c11:	48 83 c4 08          	add    $0x8,%rsp
  400c15:	c3                   	retq   

Disassembly of section .plt:

0000000000400c20 <.plt>:
  400c20:	ff 35 ca 33 20 00    	pushq  0x2033ca(%rip)        # 603ff0 <_GLOBAL_OFFSET_TABLE_+0x8>
  400c26:	ff 25 cc 33 20 00    	jmpq   *0x2033cc(%rip)        # 603ff8 <_GLOBAL_OFFSET_TABLE_+0x10>
  400c2c:	0f 1f 40 00          	nopl   0x0(%rax)

0000000000400c30 <__errno_location@plt>:
  400c30:	ff 25 ca 33 20 00    	jmpq   *0x2033ca(%rip)        # 604000 <__errno_location@GLIBC_2.2.5>
  400c36:	68 00 00 00 00       	pushq  $0x0
  400c3b:	e9 e0 ff ff ff       	jmpq   400c20 <.plt>

0000000000400c40 <srandom@plt>:
  400c40:	ff 25 c2 33 20 00    	jmpq   *0x2033c2(%rip)        # 604008 <srandom@GLIBC_2.2.5>
  400c46:	68 01 00 00 00       	pushq  $0x1
  400c4b:	e9 d0 ff ff ff       	jmpq   400c20 <.plt>

0000000000400c50 <strncmp@plt>:
  400c50:	ff 25 ba 33 20 00    	jmpq   *0x2033ba(%rip)        # 604010 <strncmp@GLIBC_2.2.5>
  400c56:	68 02 00 00 00       	pushq  $0x2
  400c5b:	e9 c0 ff ff ff       	jmpq   400c20 <.plt>

0000000000400c60 <strcpy@plt>:
  400c60:	ff 25 b2 33 20 00    	jmpq   *0x2033b2(%rip)        # 604018 <strcpy@GLIBC_2.2.5>
  400c66:	68 03 00 00 00       	pushq  $0x3
  400c6b:	e9 b0 ff ff ff       	jmpq   400c20 <.plt>

0000000000400c70 <puts@plt>:
  400c70:	ff 25 aa 33 20 00    	jmpq   *0x2033aa(%rip)        # 604020 <puts@GLIBC_2.2.5>
  400c76:	68 04 00 00 00       	pushq  $0x4
  400c7b:	e9 a0 ff ff ff       	jmpq   400c20 <.plt>

0000000000400c80 <write@plt>:
  400c80:	ff 25 a2 33 20 00    	jmpq   *0x2033a2(%rip)        # 604028 <write@GLIBC_2.2.5>
  400c86:	68 05 00 00 00       	pushq  $0x5
  400c8b:	e9 90 ff ff ff       	jmpq   400c20 <.plt>

0000000000400c90 <__stack_chk_fail@plt>:
  400c90:	ff 25 9a 33 20 00    	jmpq   *0x20339a(%rip)        # 604030 <__stack_chk_fail@GLIBC_2.4>
  400c96:	68 06 00 00 00       	pushq  $0x6
  400c9b:	e9 80 ff ff ff       	jmpq   400c20 <.plt>

0000000000400ca0 <mmap@plt>:
  400ca0:	ff 25 92 33 20 00    	jmpq   *0x203392(%rip)        # 604038 <mmap@GLIBC_2.2.5>
  400ca6:	68 07 00 00 00       	pushq  $0x7
  400cab:	e9 70 ff ff ff       	jmpq   400c20 <.plt>

0000000000400cb0 <memset@plt>:
  400cb0:	ff 25 8a 33 20 00    	jmpq   *0x20338a(%rip)        # 604040 <memset@GLIBC_2.2.5>
  400cb6:	68 08 00 00 00       	pushq  $0x8
  400cbb:	e9 60 ff ff ff       	jmpq   400c20 <.plt>

0000000000400cc0 <alarm@plt>:
  400cc0:	ff 25 82 33 20 00    	jmpq   *0x203382(%rip)        # 604048 <alarm@GLIBC_2.2.5>
  400cc6:	68 09 00 00 00       	pushq  $0x9
  400ccb:	e9 50 ff ff ff       	jmpq   400c20 <.plt>

0000000000400cd0 <close@plt>:
  400cd0:	ff 25 7a 33 20 00    	jmpq   *0x20337a(%rip)        # 604050 <close@GLIBC_2.2.5>
  400cd6:	68 0a 00 00 00       	pushq  $0xa
  400cdb:	e9 40 ff ff ff       	jmpq   400c20 <.plt>

0000000000400ce0 <read@plt>:
  400ce0:	ff 25 72 33 20 00    	jmpq   *0x203372(%rip)        # 604058 <read@GLIBC_2.2.5>
  400ce6:	68 0b 00 00 00       	pushq  $0xb
  400ceb:	e9 30 ff ff ff       	jmpq   400c20 <.plt>

0000000000400cf0 <__libc_start_main@plt>:
  400cf0:	ff 25 6a 33 20 00    	jmpq   *0x20336a(%rip)        # 604060 <__libc_start_main@GLIBC_2.2.5>
  400cf6:	68 0c 00 00 00       	pushq  $0xc
  400cfb:	e9 20 ff ff ff       	jmpq   400c20 <.plt>

0000000000400d00 <signal@plt>:
  400d00:	ff 25 62 33 20 00    	jmpq   *0x203362(%rip)        # 604068 <signal@GLIBC_2.2.5>
  400d06:	68 0d 00 00 00       	pushq  $0xd
  400d0b:	e9 10 ff ff ff       	jmpq   400c20 <.plt>

0000000000400d10 <gethostbyname@plt>:
  400d10:	ff 25 5a 33 20 00    	jmpq   *0x20335a(%rip)        # 604070 <gethostbyname@GLIBC_2.2.5>
  400d16:	68 0e 00 00 00       	pushq  $0xe
  400d1b:	e9 00 ff ff ff       	jmpq   400c20 <.plt>

0000000000400d20 <__memmove_chk@plt>:
  400d20:	ff 25 52 33 20 00    	jmpq   *0x203352(%rip)        # 604078 <__memmove_chk@GLIBC_2.3.4>
  400d26:	68 0f 00 00 00       	pushq  $0xf
  400d2b:	e9 f0 fe ff ff       	jmpq   400c20 <.plt>

0000000000400d30 <strtol@plt>:
  400d30:	ff 25 4a 33 20 00    	jmpq   *0x20334a(%rip)        # 604080 <strtol@GLIBC_2.2.5>
  400d36:	68 10 00 00 00       	pushq  $0x10
  400d3b:	e9 e0 fe ff ff       	jmpq   400c20 <.plt>

0000000000400d40 <memcpy@plt>:
  400d40:	ff 25 42 33 20 00    	jmpq   *0x203342(%rip)        # 604088 <memcpy@GLIBC_2.14>
  400d46:	68 11 00 00 00       	pushq  $0x11
  400d4b:	e9 d0 fe ff ff       	jmpq   400c20 <.plt>

0000000000400d50 <time@plt>:
  400d50:	ff 25 3a 33 20 00    	jmpq   *0x20333a(%rip)        # 604090 <time@GLIBC_2.2.5>
  400d56:	68 12 00 00 00       	pushq  $0x12
  400d5b:	e9 c0 fe ff ff       	jmpq   400c20 <.plt>

0000000000400d60 <random@plt>:
  400d60:	ff 25 32 33 20 00    	jmpq   *0x203332(%rip)        # 604098 <random@GLIBC_2.2.5>
  400d66:	68 13 00 00 00       	pushq  $0x13
  400d6b:	e9 b0 fe ff ff       	jmpq   400c20 <.plt>

0000000000400d70 <_IO_getc@plt>:
  400d70:	ff 25 2a 33 20 00    	jmpq   *0x20332a(%rip)        # 6040a0 <_IO_getc@GLIBC_2.2.5>
  400d76:	68 14 00 00 00       	pushq  $0x14
  400d7b:	e9 a0 fe ff ff       	jmpq   400c20 <.plt>

0000000000400d80 <__isoc99_sscanf@plt>:
  400d80:	ff 25 22 33 20 00    	jmpq   *0x203322(%rip)        # 6040a8 <__isoc99_sscanf@GLIBC_2.7>
  400d86:	68 15 00 00 00       	pushq  $0x15
  400d8b:	e9 90 fe ff ff       	jmpq   400c20 <.plt>

0000000000400d90 <munmap@plt>:
  400d90:	ff 25 1a 33 20 00    	jmpq   *0x20331a(%rip)        # 6040b0 <munmap@GLIBC_2.2.5>
  400d96:	68 16 00 00 00       	pushq  $0x16
  400d9b:	e9 80 fe ff ff       	jmpq   400c20 <.plt>

0000000000400da0 <__printf_chk@plt>:
  400da0:	ff 25 12 33 20 00    	jmpq   *0x203312(%rip)        # 6040b8 <__printf_chk@GLIBC_2.3.4>
  400da6:	68 17 00 00 00       	pushq  $0x17
  400dab:	e9 70 fe ff ff       	jmpq   400c20 <.plt>

0000000000400db0 <fopen@plt>:
  400db0:	ff 25 0a 33 20 00    	jmpq   *0x20330a(%rip)        # 6040c0 <fopen@GLIBC_2.2.5>
  400db6:	68 18 00 00 00       	pushq  $0x18
  400dbb:	e9 60 fe ff ff       	jmpq   400c20 <.plt>

0000000000400dc0 <getopt@plt>:
  400dc0:	ff 25 02 33 20 00    	jmpq   *0x203302(%rip)        # 6040c8 <getopt@GLIBC_2.2.5>
  400dc6:	68 19 00 00 00       	pushq  $0x19
  400dcb:	e9 50 fe ff ff       	jmpq   400c20 <.plt>

0000000000400dd0 <strtoul@plt>:
  400dd0:	ff 25 fa 32 20 00    	jmpq   *0x2032fa(%rip)        # 6040d0 <strtoul@GLIBC_2.2.5>
  400dd6:	68 1a 00 00 00       	pushq  $0x1a
  400ddb:	e9 40 fe ff ff       	jmpq   400c20 <.plt>

0000000000400de0 <gethostname@plt>:
  400de0:	ff 25 f2 32 20 00    	jmpq   *0x2032f2(%rip)        # 6040d8 <gethostname@GLIBC_2.2.5>
  400de6:	68 1b 00 00 00       	pushq  $0x1b
  400deb:	e9 30 fe ff ff       	jmpq   400c20 <.plt>

0000000000400df0 <exit@plt>:
  400df0:	ff 25 ea 32 20 00    	jmpq   *0x2032ea(%rip)        # 6040e0 <exit@GLIBC_2.2.5>
  400df6:	68 1c 00 00 00       	pushq  $0x1c
  400dfb:	e9 20 fe ff ff       	jmpq   400c20 <.plt>

0000000000400e00 <connect@plt>:
  400e00:	ff 25 e2 32 20 00    	jmpq   *0x2032e2(%rip)        # 6040e8 <connect@GLIBC_2.2.5>
  400e06:	68 1d 00 00 00       	pushq  $0x1d
  400e0b:	e9 10 fe ff ff       	jmpq   400c20 <.plt>

0000000000400e10 <__fprintf_chk@plt>:
  400e10:	ff 25 da 32 20 00    	jmpq   *0x2032da(%rip)        # 6040f0 <__fprintf_chk@GLIBC_2.3.4>
  400e16:	68 1e 00 00 00       	pushq  $0x1e
  400e1b:	e9 00 fe ff ff       	jmpq   400c20 <.plt>

0000000000400e20 <__sprintf_chk@plt>:
  400e20:	ff 25 d2 32 20 00    	jmpq   *0x2032d2(%rip)        # 6040f8 <__sprintf_chk@GLIBC_2.3.4>
  400e26:	68 1f 00 00 00       	pushq  $0x1f
  400e2b:	e9 f0 fd ff ff       	jmpq   400c20 <.plt>

0000000000400e30 <socket@plt>:
  400e30:	ff 25 ca 32 20 00    	jmpq   *0x2032ca(%rip)        # 604100 <socket@GLIBC_2.2.5>
  400e36:	68 20 00 00 00       	pushq  $0x20
  400e3b:	e9 e0 fd ff ff       	jmpq   400c20 <.plt>

Disassembly of section .text:

0000000000400e40 <_start>:
  400e40:	31 ed                	xor    %ebp,%ebp
  400e42:	49 89 d1             	mov    %rdx,%r9
  400e45:	5e                   	pop    %rsi
  400e46:	48 89 e2             	mov    %rsp,%rdx
  400e49:	48 83 e4 f0          	and    $0xfffffffffffffff0,%rsp
  400e4d:	50                   	push   %rax
  400e4e:	54                   	push   %rsp
  400e4f:	49 c7 c0 80 2d 40 00 	mov    $0x402d80,%r8
  400e56:	48 c7 c1 f0 2c 40 00 	mov    $0x402cf0,%rcx
  400e5d:	48 c7 c7 05 11 40 00 	mov    $0x401105,%rdi
  400e64:	e8 87 fe ff ff       	callq  400cf0 <__libc_start_main@plt>
  400e69:	f4                   	hlt    
  400e6a:	90                   	nop
  400e6b:	90                   	nop

0000000000400e6c <call_gmon_start>:
  400e6c:	48 83 ec 08          	sub    $0x8,%rsp
  400e70:	48 8b 05 69 31 20 00 	mov    0x203169(%rip),%rax        # 603fe0 <__gmon_start__>
  400e77:	48 85 c0             	test   %rax,%rax
  400e7a:	74 02                	je     400e7e <call_gmon_start+0x12>
  400e7c:	ff d0                	callq  *%rax
  400e7e:	48 83 c4 08          	add    $0x8,%rsp
  400e82:	c3                   	retq   
  400e83:	90                   	nop
  400e84:	90                   	nop
  400e85:	90                   	nop
  400e86:	90                   	nop
  400e87:	90                   	nop
  400e88:	90                   	nop
  400e89:	90                   	nop
  400e8a:	90                   	nop
  400e8b:	90                   	nop
  400e8c:	90                   	nop
  400e8d:	90                   	nop
  400e8e:	90                   	nop
  400e8f:	90                   	nop

0000000000400e90 <deregister_tm_clones>:
  400e90:	b8 97 44 60 00       	mov    $0x604497,%eax
  400e95:	55                   	push   %rbp
  400e96:	48 2d 90 44 60 00    	sub    $0x604490,%rax
  400e9c:	48 83 f8 0e          	cmp    $0xe,%rax
  400ea0:	48 89 e5             	mov    %rsp,%rbp
  400ea3:	77 02                	ja     400ea7 <deregister_tm_clones+0x17>
  400ea5:	5d                   	pop    %rbp
  400ea6:	c3                   	retq   
  400ea7:	b8 00 00 00 00       	mov    $0x0,%eax
  400eac:	48 85 c0             	test   %rax,%rax
  400eaf:	74 f4                	je     400ea5 <deregister_tm_clones+0x15>
  400eb1:	5d                   	pop    %rbp
  400eb2:	bf 90 44 60 00       	mov    $0x604490,%edi
  400eb7:	ff e0                	jmpq   *%rax
  400eb9:	0f 1f 80 00 00 00 00 	nopl   0x0(%rax)

0000000000400ec0 <register_tm_clones>:
  400ec0:	b8 90 44 60 00       	mov    $0x604490,%eax
  400ec5:	55                   	push   %rbp
  400ec6:	48 2d 90 44 60 00    	sub    $0x604490,%rax
  400ecc:	48 c1 f8 03          	sar    $0x3,%rax
  400ed0:	48 89 e5             	mov    %rsp,%rbp
  400ed3:	48 89 c2             	mov    %rax,%rdx
  400ed6:	48 c1 ea 3f          	shr    $0x3f,%rdx
  400eda:	48 01 d0             	add    %rdx,%rax
  400edd:	48 d1 f8             	sar    %rax
  400ee0:	75 02                	jne    400ee4 <register_tm_clones+0x24>
  400ee2:	5d                   	pop    %rbp
  400ee3:	c3                   	retq   
  400ee4:	ba 00 00 00 00       	mov    $0x0,%edx
  400ee9:	48 85 d2             	test   %rdx,%rdx
  400eec:	74 f4                	je     400ee2 <register_tm_clones+0x22>
  400eee:	5d                   	pop    %rbp
  400eef:	48 89 c6             	mov    %rax,%rsi
  400ef2:	bf 90 44 60 00       	mov    $0x604490,%edi
  400ef7:	ff e2                	jmpq   *%rdx
  400ef9:	0f 1f 80 00 00 00 00 	nopl   0x0(%rax)

0000000000400f00 <__do_global_dtors_aux>:
  400f00:	80 3d b1 35 20 00 00 	cmpb   $0x0,0x2035b1(%rip)        # 6044b8 <completed.6952>
  400f07:	75 11                	jne    400f1a <__do_global_dtors_aux+0x1a>
  400f09:	55                   	push   %rbp
  400f0a:	48 89 e5             	mov    %rsp,%rbp
  400f0d:	e8 7e ff ff ff       	callq  400e90 <deregister_tm_clones>
  400f12:	5d                   	pop    %rbp
  400f13:	c6 05 9e 35 20 00 01 	movb   $0x1,0x20359e(%rip)        # 6044b8 <completed.6952>
  400f1a:	f3 c3                	repz retq 
  400f1c:	0f 1f 40 00          	nopl   0x0(%rax)

0000000000400f20 <frame_dummy>:
  400f20:	48 83 3d e0 2e 20 00 	cmpq   $0x0,0x202ee0(%rip)        # 603e08 <__JCR_END__>
  400f27:	00 
  400f28:	74 1e                	je     400f48 <frame_dummy+0x28>
  400f2a:	b8 00 00 00 00       	mov    $0x0,%eax
  400f2f:	48 85 c0             	test   %rax,%rax
  400f32:	74 14                	je     400f48 <frame_dummy+0x28>
  400f34:	55                   	push   %rbp
  400f35:	bf 08 3e 60 00       	mov    $0x603e08,%edi
  400f3a:	48 89 e5             	mov    %rsp,%rbp
  400f3d:	ff d0                	callq  *%rax
  400f3f:	5d                   	pop    %rbp
  400f40:	e9 7b ff ff ff       	jmpq   400ec0 <register_tm_clones>
  400f45:	0f 1f 00             	nopl   (%rax)
  400f48:	e9 73 ff ff ff       	jmpq   400ec0 <register_tm_clones>
  400f4d:	90                   	nop
  400f4e:	90                   	nop
  400f4f:	90                   	nop

0000000000400f50 <usage>:
  400f50:	48 83 ec 08          	sub    $0x8,%rsp
  400f54:	48 89 fa             	mov    %rdi,%rdx
  400f57:	83 3d 8a 35 20 00 00 	cmpl   $0x0,0x20358a(%rip)        # 6044e8 <is_checker>
  400f5e:	74 3e                	je     400f9e <usage+0x4e>
  400f60:	be 98 2d 40 00       	mov    $0x402d98,%esi
  400f65:	bf 01 00 00 00       	mov    $0x1,%edi
  400f6a:	b8 00 00 00 00       	mov    $0x0,%eax
  400f6f:	e8 2c fe ff ff       	callq  400da0 <__printf_chk@plt>
  400f74:	bf d0 2d 40 00       	mov    $0x402dd0,%edi
  400f79:	e8 f2 fc ff ff       	callq  400c70 <puts@plt>
  400f7e:	bf 08 2f 40 00       	mov    $0x402f08,%edi
  400f83:	e8 e8 fc ff ff       	callq  400c70 <puts@plt>
  400f88:	bf f8 2d 40 00       	mov    $0x402df8,%edi
  400f8d:	e8 de fc ff ff       	callq  400c70 <puts@plt>
  400f92:	bf 22 2f 40 00       	mov    $0x402f22,%edi
  400f97:	e8 d4 fc ff ff       	callq  400c70 <puts@plt>
  400f9c:	eb 32                	jmp    400fd0 <usage+0x80>
  400f9e:	be 3e 2f 40 00       	mov    $0x402f3e,%esi
  400fa3:	bf 01 00 00 00       	mov    $0x1,%edi
  400fa8:	b8 00 00 00 00       	mov    $0x0,%eax
  400fad:	e8 ee fd ff ff       	callq  400da0 <__printf_chk@plt>
  400fb2:	bf 20 2e 40 00       	mov    $0x402e20,%edi
  400fb7:	e8 b4 fc ff ff       	callq  400c70 <puts@plt>
  400fbc:	bf 48 2e 40 00       	mov    $0x402e48,%edi
  400fc1:	e8 aa fc ff ff       	callq  400c70 <puts@plt>
  400fc6:	bf 5c 2f 40 00       	mov    $0x402f5c,%edi
  400fcb:	e8 a0 fc ff ff       	callq  400c70 <puts@plt>
  400fd0:	bf 00 00 00 00       	mov    $0x0,%edi
  400fd5:	e8 16 fe ff ff       	callq  400df0 <exit@plt>

0000000000400fda <initialize_target>:
  400fda:	55                   	push   %rbp
  400fdb:	53                   	push   %rbx
  400fdc:	48 81 ec 18 21 00 00 	sub    $0x2118,%rsp
  400fe3:	89 f5                	mov    %esi,%ebp
  400fe5:	64 48 8b 04 25 28 00 	mov    %fs:0x28,%rax
  400fec:	00 00 
  400fee:	48 89 84 24 08 21 00 	mov    %rax,0x2108(%rsp)
  400ff5:	00 
  400ff6:	31 c0                	xor    %eax,%eax
  400ff8:	89 3d da 34 20 00    	mov    %edi,0x2034da(%rip)        # 6044d8 <check_level>
  400ffe:	8b 3d 44 31 20 00    	mov    0x203144(%rip),%edi        # 604148 <target_id>
  401004:	e8 bd 1c 00 00       	callq  402cc6 <gencookie>
  401009:	89 05 d5 34 20 00    	mov    %eax,0x2034d5(%rip)        # 6044e4 <cookie>
  40100f:	89 c7                	mov    %eax,%edi
  401011:	e8 b0 1c 00 00       	callq  402cc6 <gencookie>
  401016:	89 05 c4 34 20 00    	mov    %eax,0x2034c4(%rip)        # 6044e0 <authkey>
  40101c:	8b 05 26 31 20 00    	mov    0x203126(%rip),%eax        # 604148 <target_id>
  401022:	8d 78 01             	lea    0x1(%rax),%edi
  401025:	e8 16 fc ff ff       	callq  400c40 <srandom@plt>
  40102a:	e8 31 fd ff ff       	callq  400d60 <random@plt>
  40102f:	89 c7                	mov    %eax,%edi
  401031:	e8 aa 02 00 00       	callq  4012e0 <scramble>
  401036:	89 c3                	mov    %eax,%ebx
  401038:	85 ed                	test   %ebp,%ebp
  40103a:	74 18                	je     401054 <initialize_target+0x7a>
  40103c:	bf 00 00 00 00       	mov    $0x0,%edi
  401041:	e8 0a fd ff ff       	callq  400d50 <time@plt>
  401046:	89 c7                	mov    %eax,%edi
  401048:	e8 f3 fb ff ff       	callq  400c40 <srandom@plt>
  40104d:	e8 0e fd ff ff       	callq  400d60 <random@plt>
  401052:	eb 05                	jmp    401059 <initialize_target+0x7f>
  401054:	b8 00 00 00 00       	mov    $0x0,%eax
  401059:	01 c3                	add    %eax,%ebx
  40105b:	0f b7 db             	movzwl %bx,%ebx
  40105e:	8d 04 dd 00 01 00 00 	lea    0x100(,%rbx,8),%eax
  401065:	89 c0                	mov    %eax,%eax
  401067:	48 89 05 12 34 20 00 	mov    %rax,0x203412(%rip)        # 604480 <buf_offset>
  40106e:	c6 05 93 40 20 00 63 	movb   $0x63,0x204093(%rip)        # 605108 <target_prefix>
  401075:	83 3d 0c 34 20 00 00 	cmpl   $0x0,0x20340c(%rip)        # 604488 <notify>
  40107c:	74 65                	je     4010e3 <initialize_target+0x109>
  40107e:	83 3d 63 34 20 00 00 	cmpl   $0x0,0x203463(%rip)        # 6044e8 <is_checker>
  401085:	75 5c                	jne    4010e3 <initialize_target+0x109>
  401087:	be 00 01 00 00       	mov    $0x100,%esi
  40108c:	48 89 e7             	mov    %rsp,%rdi
  40108f:	e8 4c fd ff ff       	callq  400de0 <gethostname@plt>
  401094:	85 c0                	test   %eax,%eax
  401096:	74 14                	je     4010ac <initialize_target+0xd2>
  401098:	bf 78 2e 40 00       	mov    $0x402e78,%edi
  40109d:	e8 ce fb ff ff       	callq  400c70 <puts@plt>
  4010a2:	bf 08 00 00 00       	mov    $0x8,%edi
  4010a7:	e8 44 fd ff ff       	callq  400df0 <exit@plt>
  4010ac:	48 8d bc 24 00 01 00 	lea    0x100(%rsp),%rdi
  4010b3:	00 
  4010b4:	e8 73 19 00 00       	callq  402a2c <init_driver>
  4010b9:	85 c0                	test   %eax,%eax
  4010bb:	79 26                	jns    4010e3 <initialize_target+0x109>
  4010bd:	48 8d 94 24 00 01 00 	lea    0x100(%rsp),%rdx
  4010c4:	00 
  4010c5:	be b0 2e 40 00       	mov    $0x402eb0,%esi
  4010ca:	bf 01 00 00 00       	mov    $0x1,%edi
  4010cf:	b8 00 00 00 00       	mov    $0x0,%eax
  4010d4:	e8 c7 fc ff ff       	callq  400da0 <__printf_chk@plt>
  4010d9:	bf 08 00 00 00       	mov    $0x8,%edi
  4010de:	e8 0d fd ff ff       	callq  400df0 <exit@plt>
  4010e3:	48 8b 84 24 08 21 00 	mov    0x2108(%rsp),%rax
  4010ea:	00 
  4010eb:	64 48 33 04 25 28 00 	xor    %fs:0x28,%rax
  4010f2:	00 00 
  4010f4:	74 05                	je     4010fb <initialize_target+0x121>
  4010f6:	e8 95 fb ff ff       	callq  400c90 <__stack_chk_fail@plt>
  4010fb:	48 81 c4 18 21 00 00 	add    $0x2118,%rsp
  401102:	5b                   	pop    %rbx
  401103:	5d                   	pop    %rbp
  401104:	c3                   	retq   

0000000000401105 <main>:
  401105:	41 56                	push   %r14
  401107:	41 55                	push   %r13
  401109:	41 54                	push   %r12
  40110b:	55                   	push   %rbp
  40110c:	53                   	push   %rbx
  40110d:	41 89 fc             	mov    %edi,%r12d
  401110:	48 89 f3             	mov    %rsi,%rbx
  401113:	be ce 1d 40 00       	mov    $0x401dce,%esi
  401118:	bf 0b 00 00 00       	mov    $0xb,%edi
  40111d:	e8 de fb ff ff       	callq  400d00 <signal@plt>
  401122:	be 80 1d 40 00       	mov    $0x401d80,%esi
  401127:	bf 07 00 00 00       	mov    $0x7,%edi
  40112c:	e8 cf fb ff ff       	callq  400d00 <signal@plt>
  401131:	be 1c 1e 40 00       	mov    $0x401e1c,%esi
  401136:	bf 04 00 00 00       	mov    $0x4,%edi
  40113b:	e8 c0 fb ff ff       	callq  400d00 <signal@plt>
  401140:	83 3d a1 33 20 00 00 	cmpl   $0x0,0x2033a1(%rip)        # 6044e8 <is_checker>
  401147:	74 20                	je     401169 <main+0x64>
  401149:	be 6a 1e 40 00       	mov    $0x401e6a,%esi
  40114e:	bf 0e 00 00 00       	mov    $0xe,%edi
  401153:	e8 a8 fb ff ff       	callq  400d00 <signal@plt>
  401158:	bf 05 00 00 00       	mov    $0x5,%edi
  40115d:	e8 5e fb ff ff       	callq  400cc0 <alarm@plt>
  401162:	bd 7a 2f 40 00       	mov    $0x402f7a,%ebp
  401167:	eb 05                	jmp    40116e <main+0x69>
  401169:	bd 75 2f 40 00       	mov    $0x402f75,%ebp
  40116e:	48 8b 05 2b 33 20 00 	mov    0x20332b(%rip),%rax        # 6044a0 <stdin@@GLIBC_2.2.5>
  401175:	48 89 05 54 33 20 00 	mov    %rax,0x203354(%rip)        # 6044d0 <infile>
  40117c:	41 bd 00 00 00 00    	mov    $0x0,%r13d
  401182:	41 be 00 00 00 00    	mov    $0x0,%r14d
  401188:	e9 c6 00 00 00       	jmpq   401253 <main+0x14e>
  40118d:	83 e8 61             	sub    $0x61,%eax
  401190:	3c 10                	cmp    $0x10,%al
  401192:	0f 87 9c 00 00 00    	ja     401234 <main+0x12f>
  401198:	0f b6 c0             	movzbl %al,%eax
  40119b:	ff 24 c5 c0 2f 40 00 	jmpq   *0x402fc0(,%rax,8)
  4011a2:	48 8b 3b             	mov    (%rbx),%rdi
  4011a5:	e8 a6 fd ff ff       	callq  400f50 <usage>
  4011aa:	be 45 32 40 00       	mov    $0x403245,%esi
  4011af:	48 8b 3d f2 32 20 00 	mov    0x2032f2(%rip),%rdi        # 6044a8 <optarg@@GLIBC_2.2.5>
  4011b6:	e8 f5 fb ff ff       	callq  400db0 <fopen@plt>
  4011bb:	48 89 05 0e 33 20 00 	mov    %rax,0x20330e(%rip)        # 6044d0 <infile>
  4011c2:	48 85 c0             	test   %rax,%rax
  4011c5:	0f 85 88 00 00 00    	jne    401253 <main+0x14e>
  4011cb:	48 8b 0d d6 32 20 00 	mov    0x2032d6(%rip),%rcx        # 6044a8 <optarg@@GLIBC_2.2.5>
  4011d2:	ba 82 2f 40 00       	mov    $0x402f82,%edx
  4011d7:	be 01 00 00 00       	mov    $0x1,%esi
  4011dc:	48 8b 3d cd 32 20 00 	mov    0x2032cd(%rip),%rdi        # 6044b0 <stderr@@GLIBC_2.2.5>
  4011e3:	e8 28 fc ff ff       	callq  400e10 <__fprintf_chk@plt>
  4011e8:	b8 01 00 00 00       	mov    $0x1,%eax
  4011ed:	e9 e4 00 00 00       	jmpq   4012d6 <main+0x1d1>
  4011f2:	ba 10 00 00 00       	mov    $0x10,%edx
  4011f7:	be 00 00 00 00       	mov    $0x0,%esi
  4011fc:	48 8b 3d a5 32 20 00 	mov    0x2032a5(%rip),%rdi        # 6044a8 <optarg@@GLIBC_2.2.5>
  401203:	e8 c8 fb ff ff       	callq  400dd0 <strtoul@plt>
  401208:	41 89 c6             	mov    %eax,%r14d
  40120b:	eb 46                	jmp    401253 <main+0x14e>
  40120d:	ba 0a 00 00 00       	mov    $0xa,%edx
  401212:	be 00 00 00 00       	mov    $0x0,%esi
  401217:	48 8b 3d 8a 32 20 00 	mov    0x20328a(%rip),%rdi        # 6044a8 <optarg@@GLIBC_2.2.5>
  40121e:	e8 0d fb ff ff       	callq  400d30 <strtol@plt>
  401223:	41 89 c5             	mov    %eax,%r13d
  401226:	eb 2b                	jmp    401253 <main+0x14e>
  401228:	c7 05 56 32 20 00 00 	movl   $0x0,0x203256(%rip)        # 604488 <notify>
  40122f:	00 00 00 
  401232:	eb 1f                	jmp    401253 <main+0x14e>
  401234:	0f be d2             	movsbl %dl,%edx
  401237:	be 9f 2f 40 00       	mov    $0x402f9f,%esi
  40123c:	bf 01 00 00 00       	mov    $0x1,%edi
  401241:	b8 00 00 00 00       	mov    $0x0,%eax
  401246:	e8 55 fb ff ff       	callq  400da0 <__printf_chk@plt>
  40124b:	48 8b 3b             	mov    (%rbx),%rdi
  40124e:	e8 fd fc ff ff       	callq  400f50 <usage>
  401253:	48 89 ea             	mov    %rbp,%rdx
  401256:	48 89 de             	mov    %rbx,%rsi
  401259:	44 89 e7             	mov    %r12d,%edi
  40125c:	e8 5f fb ff ff       	callq  400dc0 <getopt@plt>
  401261:	89 c2                	mov    %eax,%edx
  401263:	3c ff                	cmp    $0xff,%al
  401265:	0f 85 22 ff ff ff    	jne    40118d <main+0x88>
  40126b:	be 00 00 00 00       	mov    $0x0,%esi
  401270:	44 89 ef             	mov    %r13d,%edi
  401273:	e8 62 fd ff ff       	callq  400fda <initialize_target>
  401278:	83 3d 69 32 20 00 00 	cmpl   $0x0,0x203269(%rip)        # 6044e8 <is_checker>
  40127f:	74 2a                	je     4012ab <main+0x1a6>
  401281:	44 3b 35 58 32 20 00 	cmp    0x203258(%rip),%r14d        # 6044e0 <authkey>
  401288:	74 21                	je     4012ab <main+0x1a6>
  40128a:	44 89 f2             	mov    %r14d,%edx
  40128d:	be d8 2e 40 00       	mov    $0x402ed8,%esi
  401292:	bf 01 00 00 00       	mov    $0x1,%edi
  401297:	b8 00 00 00 00       	mov    $0x0,%eax
  40129c:	e8 ff fa ff ff       	callq  400da0 <__printf_chk@plt>
  4012a1:	b8 00 00 00 00       	mov    $0x0,%eax
  4012a6:	e8 60 07 00 00       	callq  401a0b <check_fail>
  4012ab:	8b 15 33 32 20 00    	mov    0x203233(%rip),%edx        # 6044e4 <cookie>
  4012b1:	be b2 2f 40 00       	mov    $0x402fb2,%esi
  4012b6:	bf 01 00 00 00       	mov    $0x1,%edi
  4012bb:	b8 00 00 00 00       	mov    $0x0,%eax
  4012c0:	e8 db fa ff ff       	callq  400da0 <__printf_chk@plt>
  4012c5:	48 8b 3d b4 31 20 00 	mov    0x2031b4(%rip),%rdi        # 604480 <buf_offset>
  4012cc:	e8 99 0c 00 00       	callq  401f6a <stable_launch>
  4012d1:	b8 00 00 00 00       	mov    $0x0,%eax
  4012d6:	5b                   	pop    %rbx
  4012d7:	5d                   	pop    %rbp
  4012d8:	41 5c                	pop    %r12
  4012da:	41 5d                	pop    %r13
  4012dc:	41 5e                	pop    %r14
  4012de:	c3                   	retq   
  4012df:	90                   	nop

00000000004012e0 <scramble>:
  4012e0:	b8 00 00 00 00       	mov    $0x0,%eax
  4012e5:	eb 11                	jmp    4012f8 <scramble+0x18>
  4012e7:	69 c8 55 e0 00 00    	imul   $0xe055,%eax,%ecx
  4012ed:	01 f9                	add    %edi,%ecx
  4012ef:	89 c2                	mov    %eax,%edx
  4012f1:	89 4c 94 c8          	mov    %ecx,-0x38(%rsp,%rdx,4)
  4012f5:	83 c0 01             	add    $0x1,%eax
  4012f8:	83 f8 09             	cmp    $0x9,%eax
  4012fb:	76 ea                	jbe    4012e7 <scramble+0x7>
  4012fd:	8b 44 24 e4          	mov    -0x1c(%rsp),%eax
  401301:	69 c0 50 12 00 00    	imul   $0x1250,%eax,%eax
  401307:	89 44 24 e4          	mov    %eax,-0x1c(%rsp)
  40130b:	8b 44 24 c8          	mov    -0x38(%rsp),%eax
  40130f:	69 c0 21 0b 00 00    	imul   $0xb21,%eax,%eax
  401315:	89 44 24 c8          	mov    %eax,-0x38(%rsp)
  401319:	8b 44 24 d4          	mov    -0x2c(%rsp),%eax
  40131d:	69 c0 89 2e 00 00    	imul   $0x2e89,%eax,%eax
  401323:	89 44 24 d4          	mov    %eax,-0x2c(%rsp)
  401327:	8b 44 24 d8          	mov    -0x28(%rsp),%eax
  40132b:	69 c0 bc 2b 00 00    	imul   $0x2bbc,%eax,%eax
  401331:	89 44 24 d8          	mov    %eax,-0x28(%rsp)
  401335:	8b 44 24 c8          	mov    -0x38(%rsp),%eax
  401339:	69 c0 b6 db 00 00    	imul   $0xdbb6,%eax,%eax
  40133f:	89 44 24 c8          	mov    %eax,-0x38(%rsp)
  401343:	8b 44 24 e4          	mov    -0x1c(%rsp),%eax
  401347:	69 c0 84 e0 00 00    	imul   $0xe084,%eax,%eax
  40134d:	89 44 24 e4          	mov    %eax,-0x1c(%rsp)
  401351:	8b 44 24 e4          	mov    -0x1c(%rsp),%eax
  401355:	69 c0 48 3c 00 00    	imul   $0x3c48,%eax,%eax
  40135b:	89 44 24 e4          	mov    %eax,-0x1c(%rsp)
  40135f:	8b 44 24 e8          	mov    -0x18(%rsp),%eax
  401363:	69 c0 d3 05 00 00    	imul   $0x5d3,%eax,%eax
  401369:	89 44 24 e8          	mov    %eax,-0x18(%rsp)
  40136d:	8b 44 24 e0          	mov    -0x20(%rsp),%eax
  401371:	69 c0 b8 e2 00 00    	imul   $0xe2b8,%eax,%eax
  401377:	89 44 24 e0          	mov    %eax,-0x20(%rsp)
  40137b:	8b 44 24 dc          	mov    -0x24(%rsp),%eax
  40137f:	69 c0 ef 54 00 00    	imul   $0x54ef,%eax,%eax
  401385:	89 44 24 dc          	mov    %eax,-0x24(%rsp)
  401389:	8b 44 24 d8          	mov    -0x28(%rsp),%eax
  40138d:	69 c0 29 ed 00 00    	imul   $0xed29,%eax,%eax
  401393:	89 44 24 d8          	mov    %eax,-0x28(%rsp)
  401397:	8b 44 24 e0          	mov    -0x20(%rsp),%eax
  40139b:	69 c0 36 83 00 00    	imul   $0x8336,%eax,%eax
  4013a1:	89 44 24 e0          	mov    %eax,-0x20(%rsp)
  4013a5:	8b 44 24 e4          	mov    -0x1c(%rsp),%eax
  4013a9:	69 c0 c1 87 00 00    	imul   $0x87c1,%eax,%eax
  4013af:	89 44 24 e4          	mov    %eax,-0x1c(%rsp)
  4013b3:	8b 44 24 e8          	mov    -0x18(%rsp),%eax
  4013b7:	69 c0 f3 2f 00 00    	imul   $0x2ff3,%eax,%eax
  4013bd:	89 44 24 e8          	mov    %eax,-0x18(%rsp)
  4013c1:	8b 44 24 dc          	mov    -0x24(%rsp),%eax
  4013c5:	69 c0 c0 e8 00 00    	imul   $0xe8c0,%eax,%eax
  4013cb:	89 44 24 dc          	mov    %eax,-0x24(%rsp)
  4013cf:	8b 44 24 d8          	mov    -0x28(%rsp),%eax
  4013d3:	69 c0 6b 6a 00 00    	imul   $0x6a6b,%eax,%eax
  4013d9:	89 44 24 d8          	mov    %eax,-0x28(%rsp)
  4013dd:	8b 44 24 dc          	mov    -0x24(%rsp),%eax
  4013e1:	69 c0 98 7b 00 00    	imul   $0x7b98,%eax,%eax
  4013e7:	89 44 24 dc          	mov    %eax,-0x24(%rsp)
  4013eb:	8b 44 24 e8          	mov    -0x18(%rsp),%eax
  4013ef:	69 c0 7e 5e 00 00    	imul   $0x5e7e,%eax,%eax
  4013f5:	89 44 24 e8          	mov    %eax,-0x18(%rsp)
  4013f9:	8b 44 24 e8          	mov    -0x18(%rsp),%eax
  4013fd:	69 c0 e6 80 00 00    	imul   $0x80e6,%eax,%eax
  401403:	89 44 24 e8          	mov    %eax,-0x18(%rsp)
  401407:	8b 44 24 ec          	mov    -0x14(%rsp),%eax
  40140b:	69 c0 92 c1 00 00    	imul   $0xc192,%eax,%eax
  401411:	89 44 24 ec          	mov    %eax,-0x14(%rsp)
  401415:	8b 44 24 d8          	mov    -0x28(%rsp),%eax
  401419:	69 c0 6c d2 00 00    	imul   $0xd26c,%eax,%eax
  40141f:	89 44 24 d8          	mov    %eax,-0x28(%rsp)
  401423:	8b 44 24 cc          	mov    -0x34(%rsp),%eax
  401427:	69 c0 4a 65 00 00    	imul   $0x654a,%eax,%eax
  40142d:	89 44 24 cc          	mov    %eax,-0x34(%rsp)
  401431:	8b 44 24 d0          	mov    -0x30(%rsp),%eax
  401435:	69 c0 19 79 00 00    	imul   $0x7919,%eax,%eax
  40143b:	89 44 24 d0          	mov    %eax,-0x30(%rsp)
  40143f:	8b 44 24 e0          	mov    -0x20(%rsp),%eax
  401443:	69 c0 49 87 00 00    	imul   $0x8749,%eax,%eax
  401449:	89 44 24 e0          	mov    %eax,-0x20(%rsp)
  40144d:	8b 44 24 d0          	mov    -0x30(%rsp),%eax
  401451:	69 c0 b6 f5 00 00    	imul   $0xf5b6,%eax,%eax
  401457:	89 44 24 d0          	mov    %eax,-0x30(%rsp)
  40145b:	8b 44 24 d4          	mov    -0x2c(%rsp),%eax
  40145f:	69 c0 2d 56 00 00    	imul   $0x562d,%eax,%eax
  401465:	89 44 24 d4          	mov    %eax,-0x2c(%rsp)
  401469:	8b 44 24 ec          	mov    -0x14(%rsp),%eax
  40146d:	69 c0 87 a4 00 00    	imul   $0xa487,%eax,%eax
  401473:	89 44 24 ec          	mov    %eax,-0x14(%rsp)
  401477:	8b 44 24 c8          	mov    -0x38(%rsp),%eax
  40147b:	69 c0 79 0e 00 00    	imul   $0xe79,%eax,%eax
  401481:	89 44 24 c8          	mov    %eax,-0x38(%rsp)
  401485:	8b 44 24 d4          	mov    -0x2c(%rsp),%eax
  401489:	69 c0 e1 83 00 00    	imul   $0x83e1,%eax,%eax
  40148f:	89 44 24 d4          	mov    %eax,-0x2c(%rsp)
  401493:	8b 44 24 dc          	mov    -0x24(%rsp),%eax
  401497:	69 c0 5e b6 00 00    	imul   $0xb65e,%eax,%eax
  40149d:	89 44 24 dc          	mov    %eax,-0x24(%rsp)
  4014a1:	8b 44 24 e0          	mov    -0x20(%rsp),%eax
  4014a5:	69 c0 48 4d 00 00    	imul   $0x4d48,%eax,%eax
  4014ab:	89 44 24 e0          	mov    %eax,-0x20(%rsp)
  4014af:	8b 44 24 d8          	mov    -0x28(%rsp),%eax
  4014b3:	69 c0 b1 67 00 00    	imul   $0x67b1,%eax,%eax
  4014b9:	89 44 24 d8          	mov    %eax,-0x28(%rsp)
  4014bd:	8b 44 24 d4          	mov    -0x2c(%rsp),%eax
  4014c1:	69 c0 57 96 00 00    	imul   $0x9657,%eax,%eax
  4014c7:	89 44 24 d4          	mov    %eax,-0x2c(%rsp)
  4014cb:	8b 44 24 d4          	mov    -0x2c(%rsp),%eax
  4014cf:	69 c0 02 73 00 00    	imul   $0x7302,%eax,%eax
  4014d5:	89 44 24 d4          	mov    %eax,-0x2c(%rsp)
  4014d9:	8b 44 24 e4          	mov    -0x1c(%rsp),%eax
  4014dd:	69 c0 69 50 00 00    	imul   $0x5069,%eax,%eax
  4014e3:	89 44 24 e4          	mov    %eax,-0x1c(%rsp)
  4014e7:	8b 44 24 d4          	mov    -0x2c(%rsp),%eax
  4014eb:	69 c0 da 73 00 00    	imul   $0x73da,%eax,%eax
  4014f1:	89 44 24 d4          	mov    %eax,-0x2c(%rsp)
  4014f5:	8b 44 24 cc          	mov    -0x34(%rsp),%eax
  4014f9:	69 c0 ab d6 00 00    	imul   $0xd6ab,%eax,%eax
  4014ff:	89 44 24 cc          	mov    %eax,-0x34(%rsp)
  401503:	8b 44 24 e4          	mov    -0x1c(%rsp),%eax
  401507:	69 c0 8a 31 00 00    	imul   $0x318a,%eax,%eax
  40150d:	89 44 24 e4          	mov    %eax,-0x1c(%rsp)
  401511:	8b 44 24 e0          	mov    -0x20(%rsp),%eax
  401515:	69 c0 43 44 00 00    	imul   $0x4443,%eax,%eax
  40151b:	89 44 24 e0          	mov    %eax,-0x20(%rsp)
  40151f:	8b 44 24 dc          	mov    -0x24(%rsp),%eax
  401523:	69 c0 97 ab 00 00    	imul   $0xab97,%eax,%eax
  401529:	89 44 24 dc          	mov    %eax,-0x24(%rsp)
  40152d:	8b 44 24 d8          	mov    -0x28(%rsp),%eax
  401531:	69 c0 0c 95 00 00    	imul   $0x950c,%eax,%eax
  401537:	89 44 24 d8          	mov    %eax,-0x28(%rsp)
  40153b:	8b 44 24 e4          	mov    -0x1c(%rsp),%eax
  40153f:	69 c0 d8 1c 00 00    	imul   $0x1cd8,%eax,%eax
  401545:	89 44 24 e4          	mov    %eax,-0x1c(%rsp)
  401549:	8b 44 24 cc          	mov    -0x34(%rsp),%eax
  40154d:	69 c0 27 db 00 00    	imul   $0xdb27,%eax,%eax
  401553:	89 44 24 cc          	mov    %eax,-0x34(%rsp)
  401557:	8b 44 24 d8          	mov    -0x28(%rsp),%eax
  40155b:	69 c0 dc 65 00 00    	imul   $0x65dc,%eax,%eax
  401561:	89 44 24 d8          	mov    %eax,-0x28(%rsp)
  401565:	8b 44 24 e0          	mov    -0x20(%rsp),%eax
  401569:	69 c0 be 69 00 00    	imul   $0x69be,%eax,%eax
  40156f:	89 44 24 e0          	mov    %eax,-0x20(%rsp)
  401573:	8b 44 24 e8          	mov    -0x18(%rsp),%eax
  401577:	69 c0 a9 cb 00 00    	imul   $0xcba9,%eax,%eax
  40157d:	89 44 24 e8          	mov    %eax,-0x18(%rsp)
  401581:	8b 44 24 c8          	mov    -0x38(%rsp),%eax
  401585:	69 c0 04 3d 00 00    	imul   $0x3d04,%eax,%eax
  40158b:	89 44 24 c8          	mov    %eax,-0x38(%rsp)
  40158f:	8b 44 24 dc          	mov    -0x24(%rsp),%eax
  401593:	69 c0 e7 7f 00 00    	imul   $0x7fe7,%eax,%eax
  401599:	89 44 24 dc          	mov    %eax,-0x24(%rsp)
  40159d:	8b 44 24 ec          	mov    -0x14(%rsp),%eax
  4015a1:	69 c0 89 f9 00 00    	imul   $0xf989,%eax,%eax
  4015a7:	89 44 24 ec          	mov    %eax,-0x14(%rsp)
  4015ab:	8b 44 24 e8          	mov    -0x18(%rsp),%eax
  4015af:	69 c0 99 ea 00 00    	imul   $0xea99,%eax,%eax
  4015b5:	89 44 24 e8          	mov    %eax,-0x18(%rsp)
  4015b9:	8b 44 24 dc          	mov    -0x24(%rsp),%eax
  4015bd:	69 c0 7e 27 00 00    	imul   $0x277e,%eax,%eax
  4015c3:	89 44 24 dc          	mov    %eax,-0x24(%rsp)
  4015c7:	8b 44 24 d0          	mov    -0x30(%rsp),%eax
  4015cb:	69 c0 c8 6c 00 00    	imul   $0x6cc8,%eax,%eax
  4015d1:	89 44 24 d0          	mov    %eax,-0x30(%rsp)
  4015d5:	8b 44 24 e8          	mov    -0x18(%rsp),%eax
  4015d9:	69 c0 98 37 00 00    	imul   $0x3798,%eax,%eax
  4015df:	89 44 24 e8          	mov    %eax,-0x18(%rsp)
  4015e3:	8b 44 24 d4          	mov    -0x2c(%rsp),%eax
  4015e7:	69 c0 ef 4d 00 00    	imul   $0x4def,%eax,%eax
  4015ed:	89 44 24 d4          	mov    %eax,-0x2c(%rsp)
  4015f1:	8b 44 24 d0          	mov    -0x30(%rsp),%eax
  4015f5:	69 c0 26 57 00 00    	imul   $0x5726,%eax,%eax
  4015fb:	89 44 24 d0          	mov    %eax,-0x30(%rsp)
  4015ff:	8b 44 24 dc          	mov    -0x24(%rsp),%eax
  401603:	69 c0 d4 b5 00 00    	imul   $0xb5d4,%eax,%eax
  401609:	89 44 24 dc          	mov    %eax,-0x24(%rsp)
  40160d:	8b 44 24 c8          	mov    -0x38(%rsp),%eax
  401611:	69 c0 4a fb 00 00    	imul   $0xfb4a,%eax,%eax
  401617:	89 44 24 c8          	mov    %eax,-0x38(%rsp)
  40161b:	8b 44 24 d4          	mov    -0x2c(%rsp),%eax
  40161f:	69 c0 c6 25 00 00    	imul   $0x25c6,%eax,%eax
  401625:	89 44 24 d4          	mov    %eax,-0x2c(%rsp)
  401629:	8b 44 24 c8          	mov    -0x38(%rsp),%eax
  40162d:	69 c0 fe fd 00 00    	imul   $0xfdfe,%eax,%eax
  401633:	89 44 24 c8          	mov    %eax,-0x38(%rsp)
  401637:	8b 44 24 c8          	mov    -0x38(%rsp),%eax
  40163b:	69 c0 7a 35 00 00    	imul   $0x357a,%eax,%eax
  401641:	89 44 24 c8          	mov    %eax,-0x38(%rsp)
  401645:	8b 44 24 cc          	mov    -0x34(%rsp),%eax
  401649:	69 c0 dd a7 00 00    	imul   $0xa7dd,%eax,%eax
  40164f:	89 44 24 cc          	mov    %eax,-0x34(%rsp)
  401653:	8b 44 24 d4          	mov    -0x2c(%rsp),%eax
  401657:	69 c0 c3 1e 00 00    	imul   $0x1ec3,%eax,%eax
  40165d:	89 44 24 d4          	mov    %eax,-0x2c(%rsp)
  401661:	8b 44 24 d8          	mov    -0x28(%rsp),%eax
  401665:	69 c0 7e 34 00 00    	imul   $0x347e,%eax,%eax
  40166b:	89 44 24 d8          	mov    %eax,-0x28(%rsp)
  40166f:	8b 44 24 ec          	mov    -0x14(%rsp),%eax
  401673:	69 c0 3d b8 00 00    	imul   $0xb83d,%eax,%eax
  401679:	89 44 24 ec          	mov    %eax,-0x14(%rsp)
  40167d:	8b 44 24 d0          	mov    -0x30(%rsp),%eax
  401681:	69 c0 93 91 00 00    	imul   $0x9193,%eax,%eax
  401687:	89 44 24 d0          	mov    %eax,-0x30(%rsp)
  40168b:	8b 44 24 d8          	mov    -0x28(%rsp),%eax
  40168f:	69 c0 fa 77 00 00    	imul   $0x77fa,%eax,%eax
  401695:	89 44 24 d8          	mov    %eax,-0x28(%rsp)
  401699:	8b 44 24 d8          	mov    -0x28(%rsp),%eax
  40169d:	69 c0 49 01 00 00    	imul   $0x149,%eax,%eax
  4016a3:	89 44 24 d8          	mov    %eax,-0x28(%rsp)
  4016a7:	8b 44 24 e0          	mov    -0x20(%rsp),%eax
  4016ab:	69 c0 3c b7 00 00    	imul   $0xb73c,%eax,%eax
  4016b1:	89 44 24 e0          	mov    %eax,-0x20(%rsp)
  4016b5:	8b 44 24 e4          	mov    -0x1c(%rsp),%eax
  4016b9:	69 c0 14 83 00 00    	imul   $0x8314,%eax,%eax
  4016bf:	89 44 24 e4          	mov    %eax,-0x1c(%rsp)
  4016c3:	8b 44 24 ec          	mov    -0x14(%rsp),%eax
  4016c7:	69 c0 bd b4 00 00    	imul   $0xb4bd,%eax,%eax
  4016cd:	89 44 24 ec          	mov    %eax,-0x14(%rsp)
  4016d1:	8b 44 24 c8          	mov    -0x38(%rsp),%eax
  4016d5:	69 c0 b1 fe 00 00    	imul   $0xfeb1,%eax,%eax
  4016db:	89 44 24 c8          	mov    %eax,-0x38(%rsp)
  4016df:	8b 44 24 ec          	mov    -0x14(%rsp),%eax
  4016e3:	69 c0 6e c6 00 00    	imul   $0xc66e,%eax,%eax
  4016e9:	89 44 24 ec          	mov    %eax,-0x14(%rsp)
  4016ed:	8b 44 24 e8          	mov    -0x18(%rsp),%eax
  4016f1:	69 c0 3e 3d 00 00    	imul   $0x3d3e,%eax,%eax
  4016f7:	89 44 24 e8          	mov    %eax,-0x18(%rsp)
  4016fb:	8b 44 24 d8          	mov    -0x28(%rsp),%eax
  4016ff:	69 c0 6c d0 00 00    	imul   $0xd06c,%eax,%eax
  401705:	89 44 24 d8          	mov    %eax,-0x28(%rsp)
  401709:	8b 44 24 e0          	mov    -0x20(%rsp),%eax
  40170d:	69 c0 d7 77 00 00    	imul   $0x77d7,%eax,%eax
  401713:	89 44 24 e0          	mov    %eax,-0x20(%rsp)
  401717:	8b 44 24 c8          	mov    -0x38(%rsp),%eax
  40171b:	69 c0 f9 a2 00 00    	imul   $0xa2f9,%eax,%eax
  401721:	89 44 24 c8          	mov    %eax,-0x38(%rsp)
  401725:	8b 44 24 e0          	mov    -0x20(%rsp),%eax
  401729:	69 c0 0a 07 00 00    	imul   $0x70a,%eax,%eax
  40172f:	89 44 24 e0          	mov    %eax,-0x20(%rsp)
  401733:	8b 44 24 d8          	mov    -0x28(%rsp),%eax
  401737:	69 c0 95 04 00 00    	imul   $0x495,%eax,%eax
  40173d:	89 44 24 d8          	mov    %eax,-0x28(%rsp)
  401741:	8b 44 24 e0          	mov    -0x20(%rsp),%eax
  401745:	69 c0 66 60 00 00    	imul   $0x6066,%eax,%eax
  40174b:	89 44 24 e0          	mov    %eax,-0x20(%rsp)
  40174f:	8b 44 24 e4          	mov    -0x1c(%rsp),%eax
  401753:	69 c0 8f 69 00 00    	imul   $0x698f,%eax,%eax
  401759:	89 44 24 e4          	mov    %eax,-0x1c(%rsp)
  40175d:	8b 44 24 e4          	mov    -0x1c(%rsp),%eax
  401761:	69 c0 a8 5f 00 00    	imul   $0x5fa8,%eax,%eax
  401767:	89 44 24 e4          	mov    %eax,-0x1c(%rsp)
  40176b:	8b 44 24 e8          	mov    -0x18(%rsp),%eax
  40176f:	69 c0 0b ab 00 00    	imul   $0xab0b,%eax,%eax
  401775:	89 44 24 e8          	mov    %eax,-0x18(%rsp)
  401779:	8b 44 24 cc          	mov    -0x34(%rsp),%eax
  40177d:	69 c0 4b c6 00 00    	imul   $0xc64b,%eax,%eax
  401783:	89 44 24 cc          	mov    %eax,-0x34(%rsp)
  401787:	8b 44 24 e0          	mov    -0x20(%rsp),%eax
  40178b:	69 c0 d4 99 00 00    	imul   $0x99d4,%eax,%eax
  401791:	89 44 24 e0          	mov    %eax,-0x20(%rsp)
  401795:	ba 00 00 00 00       	mov    $0x0,%edx
  40179a:	b8 00 00 00 00       	mov    $0x0,%eax
  40179f:	eb 0b                	jmp    4017ac <scramble+0x4cc>
  4017a1:	89 d1                	mov    %edx,%ecx
  4017a3:	8b 4c 8c c8          	mov    -0x38(%rsp,%rcx,4),%ecx
  4017a7:	01 c8                	add    %ecx,%eax
  4017a9:	83 c2 01             	add    $0x1,%edx
  4017ac:	83 fa 09             	cmp    $0x9,%edx
  4017af:	76 f0                	jbe    4017a1 <scramble+0x4c1>
  4017b1:	f3 c3                	repz retq 
  4017b3:	90                   	nop

00000000004017b4 <getbuf>:
  4017b4:	48 83 ec 38          	sub    $0x38,%rsp
  4017b8:	48 89 e7             	mov    %rsp,%rdi
  4017bb:	e8 80 02 00 00       	callq  401a40 <Gets>
  4017c0:	b8 01 00 00 00       	mov    $0x1,%eax
  4017c5:	48 83 c4 38          	add    $0x38,%rsp
  4017c9:	c3                   	retq   
  4017ca:	90                   	nop
  4017cb:	90                   	nop

00000000004017cc <touch1>:
  4017cc:	48 83 ec 08          	sub    $0x8,%rsp
  4017d0:	c7 05 02 2d 20 00 01 	movl   $0x1,0x202d02(%rip)        # 6044dc <vlevel>
  4017d7:	00 00 00 
  4017da:	bf 9e 30 40 00       	mov    $0x40309e,%edi
  4017df:	e8 8c f4 ff ff       	callq  400c70 <puts@plt>
  4017e4:	bf 01 00 00 00       	mov    $0x1,%edi
  4017e9:	e8 a8 04 00 00       	callq  401c96 <validate>
  4017ee:	bf 00 00 00 00       	mov    $0x0,%edi
  4017f3:	e8 f8 f5 ff ff       	callq  400df0 <exit@plt>

00000000004017f8 <touch2>:
  4017f8:	48 83 ec 08          	sub    $0x8,%rsp
  4017fc:	89 fa                	mov    %edi,%edx
  4017fe:	c7 05 d4 2c 20 00 02 	movl   $0x2,0x202cd4(%rip)        # 6044dc <vlevel>
  401805:	00 00 00 
  401808:	3b 3d d6 2c 20 00    	cmp    0x202cd6(%rip),%edi        # 6044e4 <cookie>
  40180e:	75 20                	jne    401830 <touch2+0x38>
  401810:	be c0 30 40 00       	mov    $0x4030c0,%esi
  401815:	bf 01 00 00 00       	mov    $0x1,%edi
  40181a:	b8 00 00 00 00       	mov    $0x0,%eax
  40181f:	e8 7c f5 ff ff       	callq  400da0 <__printf_chk@plt>
  401824:	bf 02 00 00 00       	mov    $0x2,%edi
  401829:	e8 68 04 00 00       	callq  401c96 <validate>
  40182e:	eb 1e                	jmp    40184e <touch2+0x56>
  401830:	be e8 30 40 00       	mov    $0x4030e8,%esi
  401835:	bf 01 00 00 00       	mov    $0x1,%edi
  40183a:	b8 00 00 00 00       	mov    $0x0,%eax
  40183f:	e8 5c f5 ff ff       	callq  400da0 <__printf_chk@plt>
  401844:	bf 02 00 00 00       	mov    $0x2,%edi
  401849:	e8 0a 05 00 00       	callq  401d58 <fail>
  40184e:	bf 00 00 00 00       	mov    $0x0,%edi
  401853:	e8 98 f5 ff ff       	callq  400df0 <exit@plt>

0000000000401858 <hexmatch>:
  401858:	41 54                	push   %r12
  40185a:	55                   	push   %rbp
  40185b:	53                   	push   %rbx
  40185c:	48 83 c4 80          	add    $0xffffffffffffff80,%rsp
  401860:	41 89 fc             	mov    %edi,%r12d
  401863:	48 89 f5             	mov    %rsi,%rbp
  401866:	64 48 8b 04 25 28 00 	mov    %fs:0x28,%rax
  40186d:	00 00 
  40186f:	48 89 44 24 78       	mov    %rax,0x78(%rsp)
  401874:	31 c0                	xor    %eax,%eax
  401876:	e8 e5 f4 ff ff       	callq  400d60 <random@plt>
  40187b:	48 89 c1             	mov    %rax,%rcx
  40187e:	48 ba 0b d7 a3 70 3d 	movabs $0xa3d70a3d70a3d70b,%rdx
  401885:	0a d7 a3 
  401888:	48 f7 ea             	imul   %rdx
  40188b:	48 01 ca             	add    %rcx,%rdx
  40188e:	48 c1 fa 06          	sar    $0x6,%rdx
  401892:	48 89 c8             	mov    %rcx,%rax
  401895:	48 c1 f8 3f          	sar    $0x3f,%rax
  401899:	48 29 c2             	sub    %rax,%rdx
  40189c:	48 8d 04 92          	lea    (%rdx,%rdx,4),%rax
  4018a0:	48 8d 04 80          	lea    (%rax,%rax,4),%rax
  4018a4:	48 c1 e0 02          	shl    $0x2,%rax
  4018a8:	48 29 c1             	sub    %rax,%rcx
  4018ab:	48 8d 1c 0c          	lea    (%rsp,%rcx,1),%rbx
  4018af:	45 89 e0             	mov    %r12d,%r8d
  4018b2:	b9 bb 30 40 00       	mov    $0x4030bb,%ecx
  4018b7:	48 c7 c2 ff ff ff ff 	mov    $0xffffffffffffffff,%rdx
  4018be:	be 01 00 00 00       	mov    $0x1,%esi
  4018c3:	48 89 df             	mov    %rbx,%rdi
  4018c6:	b8 00 00 00 00       	mov    $0x0,%eax
  4018cb:	e8 50 f5 ff ff       	callq  400e20 <__sprintf_chk@plt>
  4018d0:	ba 09 00 00 00       	mov    $0x9,%edx
  4018d5:	48 89 de             	mov    %rbx,%rsi
  4018d8:	48 89 ef             	mov    %rbp,%rdi
  4018db:	e8 70 f3 ff ff       	callq  400c50 <strncmp@plt>
  4018e0:	85 c0                	test   %eax,%eax
  4018e2:	0f 94 c0             	sete   %al
  4018e5:	0f b6 c0             	movzbl %al,%eax
  4018e8:	48 8b 74 24 78       	mov    0x78(%rsp),%rsi
  4018ed:	64 48 33 34 25 28 00 	xor    %fs:0x28,%rsi
  4018f4:	00 00 
  4018f6:	74 05                	je     4018fd <hexmatch+0xa5>
  4018f8:	e8 93 f3 ff ff       	callq  400c90 <__stack_chk_fail@plt>
  4018fd:	48 83 ec 80          	sub    $0xffffffffffffff80,%rsp
  401901:	5b                   	pop    %rbx
  401902:	5d                   	pop    %rbp
  401903:	41 5c                	pop    %r12
  401905:	c3                   	retq   

0000000000401906 <touch3>:
  401906:	53                   	push   %rbx
  401907:	48 89 fb             	mov    %rdi,%rbx
  40190a:	c7 05 c8 2b 20 00 03 	movl   $0x3,0x202bc8(%rip)        # 6044dc <vlevel>
  401911:	00 00 00 
  401914:	48 89 fe             	mov    %rdi,%rsi
  401917:	8b 3d c7 2b 20 00    	mov    0x202bc7(%rip),%edi        # 6044e4 <cookie>
  40191d:	e8 36 ff ff ff       	callq  401858 <hexmatch>
  401922:	85 c0                	test   %eax,%eax
  401924:	74 23                	je     401949 <touch3+0x43>
  401926:	48 89 da             	mov    %rbx,%rdx
  401929:	be 10 31 40 00       	mov    $0x403110,%esi
  40192e:	bf 01 00 00 00       	mov    $0x1,%edi
  401933:	b8 00 00 00 00       	mov    $0x0,%eax
  401938:	e8 63 f4 ff ff       	callq  400da0 <__printf_chk@plt>
  40193d:	bf 03 00 00 00       	mov    $0x3,%edi
  401942:	e8 4f 03 00 00       	callq  401c96 <validate>
  401947:	eb 21                	jmp    40196a <touch3+0x64>
  401949:	48 89 da             	mov    %rbx,%rdx
  40194c:	be 38 31 40 00       	mov    $0x403138,%esi
  401951:	bf 01 00 00 00       	mov    $0x1,%edi
  401956:	b8 00 00 00 00       	mov    $0x0,%eax
  40195b:	e8 40 f4 ff ff       	callq  400da0 <__printf_chk@plt>
  401960:	bf 03 00 00 00       	mov    $0x3,%edi
  401965:	e8 ee 03 00 00       	callq  401d58 <fail>
  40196a:	bf 00 00 00 00       	mov    $0x0,%edi
  40196f:	e8 7c f4 ff ff       	callq  400df0 <exit@plt>

0000000000401974 <test>:
  401974:	48 83 ec 08          	sub    $0x8,%rsp
  401978:	b8 00 00 00 00       	mov    $0x0,%eax
  40197d:	e8 32 fe ff ff       	callq  4017b4 <getbuf>
  401982:	89 c2                	mov    %eax,%edx
  401984:	be 60 31 40 00       	mov    $0x403160,%esi
  401989:	bf 01 00 00 00       	mov    $0x1,%edi
  40198e:	b8 00 00 00 00       	mov    $0x0,%eax
  401993:	e8 08 f4 ff ff       	callq  400da0 <__printf_chk@plt>
  401998:	48 83 c4 08          	add    $0x8,%rsp
  40199c:	c3                   	retq   
  40199d:	90                   	nop
  40199e:	90                   	nop
  40199f:	90                   	nop

00000000004019a0 <save_char>:
  4019a0:	8b 05 5e 37 20 00    	mov    0x20375e(%rip),%eax        # 605104 <gets_cnt>
  4019a6:	3d ff 03 00 00       	cmp    $0x3ff,%eax
  4019ab:	7f 49                	jg     4019f6 <save_char+0x56>
  4019ad:	8d 14 40             	lea    (%rax,%rax,2),%edx
  4019b0:	89 f9                	mov    %edi,%ecx
  4019b2:	c0 e9 04             	shr    $0x4,%cl
  4019b5:	83 e1 0f             	and    $0xf,%ecx
  4019b8:	0f b6 b1 80 34 40 00 	movzbl 0x403480(%rcx),%esi
  4019bf:	48 63 ca             	movslq %edx,%rcx
  4019c2:	40 88 b1 00 45 60 00 	mov    %sil,0x604500(%rcx)
  4019c9:	8d 4a 01             	lea    0x1(%rdx),%ecx
  4019cc:	83 e7 0f             	and    $0xf,%edi
  4019cf:	0f b6 b7 80 34 40 00 	movzbl 0x403480(%rdi),%esi
  4019d6:	48 63 c9             	movslq %ecx,%rcx
  4019d9:	40 88 b1 00 45 60 00 	mov    %sil,0x604500(%rcx)
  4019e0:	83 c2 02             	add    $0x2,%edx
  4019e3:	48 63 d2             	movslq %edx,%rdx
  4019e6:	c6 82 00 45 60 00 20 	movb   $0x20,0x604500(%rdx)
  4019ed:	83 c0 01             	add    $0x1,%eax
  4019f0:	89 05 0e 37 20 00    	mov    %eax,0x20370e(%rip)        # 605104 <gets_cnt>
  4019f6:	f3 c3                	repz retq 

00000000004019f8 <save_term>:
  4019f8:	8b 05 06 37 20 00    	mov    0x203706(%rip),%eax        # 605104 <gets_cnt>
  4019fe:	8d 04 40             	lea    (%rax,%rax,2),%eax
  401a01:	48 98                	cltq   
  401a03:	c6 80 00 45 60 00 00 	movb   $0x0,0x604500(%rax)
  401a0a:	c3                   	retq   

0000000000401a0b <check_fail>:
  401a0b:	48 83 ec 08          	sub    $0x8,%rsp
  401a0f:	0f be 15 f2 36 20 00 	movsbl 0x2036f2(%rip),%edx        # 605108 <target_prefix>
  401a16:	41 b8 00 45 60 00    	mov    $0x604500,%r8d
  401a1c:	8b 0d b6 2a 20 00    	mov    0x202ab6(%rip),%ecx        # 6044d8 <check_level>
  401a22:	be 83 31 40 00       	mov    $0x403183,%esi
  401a27:	bf 01 00 00 00       	mov    $0x1,%edi
  401a2c:	b8 00 00 00 00       	mov    $0x0,%eax
  401a31:	e8 6a f3 ff ff       	callq  400da0 <__printf_chk@plt>
  401a36:	bf 01 00 00 00       	mov    $0x1,%edi
  401a3b:	e8 b0 f3 ff ff       	callq  400df0 <exit@plt>

0000000000401a40 <Gets>:
  401a40:	41 54                	push   %r12
  401a42:	55                   	push   %rbp
  401a43:	53                   	push   %rbx
  401a44:	49 89 fc             	mov    %rdi,%r12
  401a47:	c7 05 b3 36 20 00 00 	movl   $0x0,0x2036b3(%rip)        # 605104 <gets_cnt>
  401a4e:	00 00 00 
  401a51:	48 89 fb             	mov    %rdi,%rbx
  401a54:	eb 11                	jmp    401a67 <Gets+0x27>
  401a56:	48 8d 6b 01          	lea    0x1(%rbx),%rbp
  401a5a:	88 03                	mov    %al,(%rbx)
  401a5c:	0f b6 f8             	movzbl %al,%edi
  401a5f:	e8 3c ff ff ff       	callq  4019a0 <save_char>
  401a64:	48 89 eb             	mov    %rbp,%rbx
  401a67:	48 8b 3d 62 2a 20 00 	mov    0x202a62(%rip),%rdi        # 6044d0 <infile>
  401a6e:	e8 fd f2 ff ff       	callq  400d70 <_IO_getc@plt>
  401a73:	83 f8 ff             	cmp    $0xffffffff,%eax
  401a76:	74 05                	je     401a7d <Gets+0x3d>
  401a78:	83 f8 0a             	cmp    $0xa,%eax
  401a7b:	75 d9                	jne    401a56 <Gets+0x16>
  401a7d:	c6 03 00             	movb   $0x0,(%rbx)
  401a80:	b8 00 00 00 00       	mov    $0x0,%eax
  401a85:	e8 6e ff ff ff       	callq  4019f8 <save_term>
  401a8a:	4c 89 e0             	mov    %r12,%rax
  401a8d:	5b                   	pop    %rbx
  401a8e:	5d                   	pop    %rbp
  401a8f:	41 5c                	pop    %r12
  401a91:	c3                   	retq   

0000000000401a92 <notify_server>:
  401a92:	53                   	push   %rbx
  401a93:	48 81 ec 30 40 00 00 	sub    $0x4030,%rsp
  401a9a:	64 48 8b 04 25 28 00 	mov    %fs:0x28,%rax
  401aa1:	00 00 
  401aa3:	48 89 84 24 28 40 00 	mov    %rax,0x4028(%rsp)
  401aaa:	00 
  401aab:	31 c0                	xor    %eax,%eax
  401aad:	83 3d 34 2a 20 00 00 	cmpl   $0x0,0x202a34(%rip)        # 6044e8 <is_checker>
  401ab4:	0f 85 bb 01 00 00    	jne    401c75 <notify_server+0x1e3>
  401aba:	89 fb                	mov    %edi,%ebx
  401abc:	8b 05 42 36 20 00    	mov    0x203642(%rip),%eax        # 605104 <gets_cnt>
  401ac2:	83 c0 64             	add    $0x64,%eax
  401ac5:	3d 00 20 00 00       	cmp    $0x2000,%eax
  401aca:	7e 1e                	jle    401aea <notify_server+0x58>
  401acc:	be b8 32 40 00       	mov    $0x4032b8,%esi
  401ad1:	bf 01 00 00 00       	mov    $0x1,%edi
  401ad6:	b8 00 00 00 00       	mov    $0x0,%eax
  401adb:	e8 c0 f2 ff ff       	callq  400da0 <__printf_chk@plt>
  401ae0:	bf 01 00 00 00       	mov    $0x1,%edi
  401ae5:	e8 06 f3 ff ff       	callq  400df0 <exit@plt>
  401aea:	0f be 05 17 36 20 00 	movsbl 0x203617(%rip),%eax        # 605108 <target_prefix>
  401af1:	83 3d 90 29 20 00 00 	cmpl   $0x0,0x202990(%rip)        # 604488 <notify>
  401af8:	74 08                	je     401b02 <notify_server+0x70>
  401afa:	8b 15 e0 29 20 00    	mov    0x2029e0(%rip),%edx        # 6044e0 <authkey>
  401b00:	eb 05                	jmp    401b07 <notify_server+0x75>
  401b02:	ba ff ff ff ff       	mov    $0xffffffff,%edx
  401b07:	85 db                	test   %ebx,%ebx
  401b09:	74 08                	je     401b13 <notify_server+0x81>
  401b0b:	41 b9 99 31 40 00    	mov    $0x403199,%r9d
  401b11:	eb 06                	jmp    401b19 <notify_server+0x87>
  401b13:	41 b9 9e 31 40 00    	mov    $0x40319e,%r9d
  401b19:	48 c7 44 24 18 00 45 	movq   $0x604500,0x18(%rsp)
  401b20:	60 00 
  401b22:	89 74 24 10          	mov    %esi,0x10(%rsp)
  401b26:	89 44 24 08          	mov    %eax,0x8(%rsp)
  401b2a:	89 14 24             	mov    %edx,(%rsp)
  401b2d:	44 8b 05 14 26 20 00 	mov    0x202614(%rip),%r8d        # 604148 <target_id>
  401b34:	b9 a3 31 40 00       	mov    $0x4031a3,%ecx
  401b39:	ba 00 20 00 00       	mov    $0x2000,%edx
  401b3e:	be 01 00 00 00       	mov    $0x1,%esi
  401b43:	48 8d 7c 24 20       	lea    0x20(%rsp),%rdi
  401b48:	b8 00 00 00 00       	mov    $0x0,%eax
  401b4d:	e8 ce f2 ff ff       	callq  400e20 <__sprintf_chk@plt>
  401b52:	83 3d 2f 29 20 00 00 	cmpl   $0x0,0x20292f(%rip)        # 604488 <notify>
  401b59:	0f 84 86 00 00 00    	je     401be5 <notify_server+0x153>
  401b5f:	85 db                	test   %ebx,%ebx
  401b61:	74 70                	je     401bd3 <notify_server+0x141>
  401b63:	4c 8d 8c 24 20 20 00 	lea    0x2020(%rsp),%r9
  401b6a:	00 
  401b6b:	41 b8 00 00 00 00    	mov    $0x0,%r8d
  401b71:	48 8d 4c 24 20       	lea    0x20(%rsp),%rcx
  401b76:	48 8b 15 d3 25 20 00 	mov    0x2025d3(%rip),%rdx        # 604150 <lab>
  401b7d:	48 8b 35 d4 25 20 00 	mov    0x2025d4(%rip),%rsi        # 604158 <course>
  401b84:	48 8b 3d b5 25 20 00 	mov    0x2025b5(%rip),%rdi        # 604140 <user_id>
  401b8b:	e8 8f 10 00 00       	callq  402c1f <driver_post>
  401b90:	85 c0                	test   %eax,%eax
  401b92:	79 26                	jns    401bba <notify_server+0x128>
  401b94:	48 8d 94 24 20 20 00 	lea    0x2020(%rsp),%rdx
  401b9b:	00 
  401b9c:	be bf 31 40 00       	mov    $0x4031bf,%esi
  401ba1:	bf 01 00 00 00       	mov    $0x1,%edi
  401ba6:	b8 00 00 00 00       	mov    $0x0,%eax
  401bab:	e8 f0 f1 ff ff       	callq  400da0 <__printf_chk@plt>
  401bb0:	bf 01 00 00 00       	mov    $0x1,%edi
  401bb5:	e8 36 f2 ff ff       	callq  400df0 <exit@plt>
  401bba:	bf e8 32 40 00       	mov    $0x4032e8,%edi
  401bbf:	e8 ac f0 ff ff       	callq  400c70 <puts@plt>
  401bc4:	bf cb 31 40 00       	mov    $0x4031cb,%edi
  401bc9:	e8 a2 f0 ff ff       	callq  400c70 <puts@plt>
  401bce:	e9 a2 00 00 00       	jmpq   401c75 <notify_server+0x1e3>
  401bd3:	bf d5 31 40 00       	mov    $0x4031d5,%edi
  401bd8:	e8 93 f0 ff ff       	callq  400c70 <puts@plt>
  401bdd:	0f 1f 00             	nopl   (%rax)
  401be0:	e9 90 00 00 00       	jmpq   401c75 <notify_server+0x1e3>
  401be5:	85 db                	test   %ebx,%ebx
  401be7:	74 09                	je     401bf2 <notify_server+0x160>
  401be9:	ba 99 31 40 00       	mov    $0x403199,%edx
  401bee:	66 90                	xchg   %ax,%ax
  401bf0:	eb 05                	jmp    401bf7 <notify_server+0x165>
  401bf2:	ba 9e 31 40 00       	mov    $0x40319e,%edx
  401bf7:	be 20 33 40 00       	mov    $0x403320,%esi
  401bfc:	bf 01 00 00 00       	mov    $0x1,%edi
  401c01:	b8 00 00 00 00       	mov    $0x0,%eax
  401c06:	e8 95 f1 ff ff       	callq  400da0 <__printf_chk@plt>
  401c0b:	48 8b 15 2e 25 20 00 	mov    0x20252e(%rip),%rdx        # 604140 <user_id>
  401c12:	be dc 31 40 00       	mov    $0x4031dc,%esi
  401c17:	bf 01 00 00 00       	mov    $0x1,%edi
  401c1c:	b8 00 00 00 00       	mov    $0x0,%eax
  401c21:	e8 7a f1 ff ff       	callq  400da0 <__printf_chk@plt>
  401c26:	48 8b 15 2b 25 20 00 	mov    0x20252b(%rip),%rdx        # 604158 <course>
  401c2d:	be e9 31 40 00       	mov    $0x4031e9,%esi
  401c32:	bf 01 00 00 00       	mov    $0x1,%edi
  401c37:	b8 00 00 00 00       	mov    $0x0,%eax
  401c3c:	e8 5f f1 ff ff       	callq  400da0 <__printf_chk@plt>
  401c41:	48 8b 15 08 25 20 00 	mov    0x202508(%rip),%rdx        # 604150 <lab>
  401c48:	be f5 31 40 00       	mov    $0x4031f5,%esi
  401c4d:	bf 01 00 00 00       	mov    $0x1,%edi
  401c52:	b8 00 00 00 00       	mov    $0x0,%eax
  401c57:	e8 44 f1 ff ff       	callq  400da0 <__printf_chk@plt>
  401c5c:	48 8d 54 24 20       	lea    0x20(%rsp),%rdx
  401c61:	be fe 31 40 00       	mov    $0x4031fe,%esi
  401c66:	bf 01 00 00 00       	mov    $0x1,%edi
  401c6b:	b8 00 00 00 00       	mov    $0x0,%eax
  401c70:	e8 2b f1 ff ff       	callq  400da0 <__printf_chk@plt>
  401c75:	48 8b 84 24 28 40 00 	mov    0x4028(%rsp),%rax
  401c7c:	00 
  401c7d:	64 48 33 04 25 28 00 	xor    %fs:0x28,%rax
  401c84:	00 00 
  401c86:	74 05                	je     401c8d <notify_server+0x1fb>
  401c88:	e8 03 f0 ff ff       	callq  400c90 <__stack_chk_fail@plt>
  401c8d:	48 81 c4 30 40 00 00 	add    $0x4030,%rsp
  401c94:	5b                   	pop    %rbx
  401c95:	c3                   	retq   

0000000000401c96 <validate>:
  401c96:	53                   	push   %rbx
  401c97:	89 fb                	mov    %edi,%ebx
  401c99:	83 3d 48 28 20 00 00 	cmpl   $0x0,0x202848(%rip)        # 6044e8 <is_checker>
  401ca0:	74 6b                	je     401d0d <validate+0x77>
  401ca2:	39 3d 34 28 20 00    	cmp    %edi,0x202834(%rip)        # 6044dc <vlevel>
  401ca8:	74 14                	je     401cbe <validate+0x28>
  401caa:	bf 0a 32 40 00       	mov    $0x40320a,%edi
  401caf:	e8 bc ef ff ff       	callq  400c70 <puts@plt>
  401cb4:	b8 00 00 00 00       	mov    $0x0,%eax
  401cb9:	e8 4d fd ff ff       	callq  401a0b <check_fail>
  401cbe:	8b 15 14 28 20 00    	mov    0x202814(%rip),%edx        # 6044d8 <check_level>
  401cc4:	39 fa                	cmp    %edi,%edx
  401cc6:	74 20                	je     401ce8 <validate+0x52>
  401cc8:	89 f9                	mov    %edi,%ecx
  401cca:	be 48 33 40 00       	mov    $0x403348,%esi
  401ccf:	bf 01 00 00 00       	mov    $0x1,%edi
  401cd4:	b8 00 00 00 00       	mov    $0x0,%eax
  401cd9:	e8 c2 f0 ff ff       	callq  400da0 <__printf_chk@plt>
  401cde:	b8 00 00 00 00       	mov    $0x0,%eax
  401ce3:	e8 23 fd ff ff       	callq  401a0b <check_fail>
  401ce8:	0f be 15 19 34 20 00 	movsbl 0x203419(%rip),%edx        # 605108 <target_prefix>
  401cef:	41 b8 00 45 60 00    	mov    $0x604500,%r8d
  401cf5:	89 f9                	mov    %edi,%ecx
  401cf7:	be 28 32 40 00       	mov    $0x403228,%esi
  401cfc:	bf 01 00 00 00       	mov    $0x1,%edi
  401d01:	b8 00 00 00 00       	mov    $0x0,%eax
  401d06:	e8 95 f0 ff ff       	callq  400da0 <__printf_chk@plt>
  401d0b:	eb 49                	jmp    401d56 <validate+0xc0>
  401d0d:	39 3d c9 27 20 00    	cmp    %edi,0x2027c9(%rip)        # 6044dc <vlevel>
  401d13:	74 18                	je     401d2d <validate+0x97>
  401d15:	bf 0a 32 40 00       	mov    $0x40320a,%edi
  401d1a:	e8 51 ef ff ff       	callq  400c70 <puts@plt>
  401d1f:	89 de                	mov    %ebx,%esi
  401d21:	bf 00 00 00 00       	mov    $0x0,%edi
  401d26:	e8 67 fd ff ff       	callq  401a92 <notify_server>
  401d2b:	eb 29                	jmp    401d56 <validate+0xc0>
  401d2d:	0f be 0d d4 33 20 00 	movsbl 0x2033d4(%rip),%ecx        # 605108 <target_prefix>
  401d34:	89 fa                	mov    %edi,%edx
  401d36:	be 70 33 40 00       	mov    $0x403370,%esi
  401d3b:	bf 01 00 00 00       	mov    $0x1,%edi
  401d40:	b8 00 00 00 00       	mov    $0x0,%eax
  401d45:	e8 56 f0 ff ff       	callq  400da0 <__printf_chk@plt>
  401d4a:	89 de                	mov    %ebx,%esi
  401d4c:	bf 01 00 00 00       	mov    $0x1,%edi
  401d51:	e8 3c fd ff ff       	callq  401a92 <notify_server>
  401d56:	5b                   	pop    %rbx
  401d57:	c3                   	retq   

0000000000401d58 <fail>:
  401d58:	48 83 ec 08          	sub    $0x8,%rsp
  401d5c:	83 3d 85 27 20 00 00 	cmpl   $0x0,0x202785(%rip)        # 6044e8 <is_checker>
  401d63:	74 0a                	je     401d6f <fail+0x17>
  401d65:	b8 00 00 00 00       	mov    $0x0,%eax
  401d6a:	e8 9c fc ff ff       	callq  401a0b <check_fail>
  401d6f:	89 fe                	mov    %edi,%esi
  401d71:	bf 00 00 00 00       	mov    $0x0,%edi
  401d76:	e8 17 fd ff ff       	callq  401a92 <notify_server>
  401d7b:	48 83 c4 08          	add    $0x8,%rsp
  401d7f:	c3                   	retq   

0000000000401d80 <bushandler>:
  401d80:	48 83 ec 08          	sub    $0x8,%rsp
  401d84:	83 3d 5d 27 20 00 00 	cmpl   $0x0,0x20275d(%rip)        # 6044e8 <is_checker>
  401d8b:	74 14                	je     401da1 <bushandler+0x21>
  401d8d:	bf 3d 32 40 00       	mov    $0x40323d,%edi
  401d92:	e8 d9 ee ff ff       	callq  400c70 <puts@plt>
  401d97:	b8 00 00 00 00       	mov    $0x0,%eax
  401d9c:	e8 6a fc ff ff       	callq  401a0b <check_fail>
  401da1:	bf a8 33 40 00       	mov    $0x4033a8,%edi
  401da6:	e8 c5 ee ff ff       	callq  400c70 <puts@plt>
  401dab:	bf 47 32 40 00       	mov    $0x403247,%edi
  401db0:	e8 bb ee ff ff       	callq  400c70 <puts@plt>
  401db5:	be 00 00 00 00       	mov    $0x0,%esi
  401dba:	bf 00 00 00 00       	mov    $0x0,%edi
  401dbf:	e8 ce fc ff ff       	callq  401a92 <notify_server>
  401dc4:	bf 01 00 00 00       	mov    $0x1,%edi
  401dc9:	e8 22 f0 ff ff       	callq  400df0 <exit@plt>

0000000000401dce <seghandler>:
  401dce:	48 83 ec 08          	sub    $0x8,%rsp
  401dd2:	83 3d 0f 27 20 00 00 	cmpl   $0x0,0x20270f(%rip)        # 6044e8 <is_checker>
  401dd9:	74 14                	je     401def <seghandler+0x21>
  401ddb:	bf 5d 32 40 00       	mov    $0x40325d,%edi
  401de0:	e8 8b ee ff ff       	callq  400c70 <puts@plt>
  401de5:	b8 00 00 00 00       	mov    $0x0,%eax
  401dea:	e8 1c fc ff ff       	callq  401a0b <check_fail>
  401def:	bf c8 33 40 00       	mov    $0x4033c8,%edi
  401df4:	e8 77 ee ff ff       	callq  400c70 <puts@plt>
  401df9:	bf 47 32 40 00       	mov    $0x403247,%edi
  401dfe:	e8 6d ee ff ff       	callq  400c70 <puts@plt>
  401e03:	be 00 00 00 00       	mov    $0x0,%esi
  401e08:	bf 00 00 00 00       	mov    $0x0,%edi
  401e0d:	e8 80 fc ff ff       	callq  401a92 <notify_server>
  401e12:	bf 01 00 00 00       	mov    $0x1,%edi
  401e17:	e8 d4 ef ff ff       	callq  400df0 <exit@plt>

0000000000401e1c <illegalhandler>:
  401e1c:	48 83 ec 08          	sub    $0x8,%rsp
  401e20:	83 3d c1 26 20 00 00 	cmpl   $0x0,0x2026c1(%rip)        # 6044e8 <is_checker>
  401e27:	74 14                	je     401e3d <illegalhandler+0x21>
  401e29:	bf 70 32 40 00       	mov    $0x403270,%edi
  401e2e:	e8 3d ee ff ff       	callq  400c70 <puts@plt>
  401e33:	b8 00 00 00 00       	mov    $0x0,%eax
  401e38:	e8 ce fb ff ff       	callq  401a0b <check_fail>
  401e3d:	bf f0 33 40 00       	mov    $0x4033f0,%edi
  401e42:	e8 29 ee ff ff       	callq  400c70 <puts@plt>
  401e47:	bf 47 32 40 00       	mov    $0x403247,%edi
  401e4c:	e8 1f ee ff ff       	callq  400c70 <puts@plt>
  401e51:	be 00 00 00 00       	mov    $0x0,%esi
  401e56:	bf 00 00 00 00       	mov    $0x0,%edi
  401e5b:	e8 32 fc ff ff       	callq  401a92 <notify_server>
  401e60:	bf 01 00 00 00       	mov    $0x1,%edi
  401e65:	e8 86 ef ff ff       	callq  400df0 <exit@plt>

0000000000401e6a <sigalrmhandler>:
  401e6a:	48 83 ec 08          	sub    $0x8,%rsp
  401e6e:	83 3d 73 26 20 00 00 	cmpl   $0x0,0x202673(%rip)        # 6044e8 <is_checker>
  401e75:	74 14                	je     401e8b <sigalrmhandler+0x21>
  401e77:	bf 84 32 40 00       	mov    $0x403284,%edi
  401e7c:	e8 ef ed ff ff       	callq  400c70 <puts@plt>
  401e81:	b8 00 00 00 00       	mov    $0x0,%eax
  401e86:	e8 80 fb ff ff       	callq  401a0b <check_fail>
  401e8b:	ba 05 00 00 00       	mov    $0x5,%edx
  401e90:	be 20 34 40 00       	mov    $0x403420,%esi
  401e95:	bf 01 00 00 00       	mov    $0x1,%edi
  401e9a:	b8 00 00 00 00       	mov    $0x0,%eax
  401e9f:	e8 fc ee ff ff       	callq  400da0 <__printf_chk@plt>
  401ea4:	be 00 00 00 00       	mov    $0x0,%esi
  401ea9:	bf 00 00 00 00       	mov    $0x0,%edi
  401eae:	e8 df fb ff ff       	callq  401a92 <notify_server>
  401eb3:	bf 01 00 00 00       	mov    $0x1,%edi
  401eb8:	e8 33 ef ff ff       	callq  400df0 <exit@plt>

0000000000401ebd <launch>:
  401ebd:	55                   	push   %rbp
  401ebe:	48 89 e5             	mov    %rsp,%rbp
  401ec1:	48 83 ec 10          	sub    $0x10,%rsp
  401ec5:	48 89 fa             	mov    %rdi,%rdx
  401ec8:	64 48 8b 04 25 28 00 	mov    %fs:0x28,%rax
  401ecf:	00 00 
  401ed1:	48 89 45 f8          	mov    %rax,-0x8(%rbp)
  401ed5:	31 c0                	xor    %eax,%eax
  401ed7:	48 8d 47 1e          	lea    0x1e(%rdi),%rax
  401edb:	48 83 e0 f0          	and    $0xfffffffffffffff0,%rax
  401edf:	48 29 c4             	sub    %rax,%rsp
  401ee2:	48 8d 7c 24 0f       	lea    0xf(%rsp),%rdi
  401ee7:	48 83 e7 f0          	and    $0xfffffffffffffff0,%rdi
  401eeb:	be f4 00 00 00       	mov    $0xf4,%esi
  401ef0:	e8 bb ed ff ff       	callq  400cb0 <memset@plt>
  401ef5:	48 8b 05 a4 25 20 00 	mov    0x2025a4(%rip),%rax        # 6044a0 <stdin@@GLIBC_2.2.5>
  401efc:	48 39 05 cd 25 20 00 	cmp    %rax,0x2025cd(%rip)        # 6044d0 <infile>
  401f03:	75 14                	jne    401f19 <launch+0x5c>
  401f05:	be 8c 32 40 00       	mov    $0x40328c,%esi
  401f0a:	bf 01 00 00 00       	mov    $0x1,%edi
  401f0f:	b8 00 00 00 00       	mov    $0x0,%eax
  401f14:	e8 87 ee ff ff       	callq  400da0 <__printf_chk@plt>
  401f19:	c7 05 b9 25 20 00 00 	movl   $0x0,0x2025b9(%rip)        # 6044dc <vlevel>
  401f20:	00 00 00 
  401f23:	b8 00 00 00 00       	mov    $0x0,%eax
  401f28:	e8 47 fa ff ff       	callq  401974 <test>
  401f2d:	83 3d b4 25 20 00 00 	cmpl   $0x0,0x2025b4(%rip)        # 6044e8 <is_checker>
  401f34:	74 14                	je     401f4a <launch+0x8d>
  401f36:	bf 99 32 40 00       	mov    $0x403299,%edi
  401f3b:	e8 30 ed ff ff       	callq  400c70 <puts@plt>
  401f40:	b8 00 00 00 00       	mov    $0x0,%eax
  401f45:	e8 c1 fa ff ff       	callq  401a0b <check_fail>
  401f4a:	bf a4 32 40 00       	mov    $0x4032a4,%edi
  401f4f:	e8 1c ed ff ff       	callq  400c70 <puts@plt>
  401f54:	48 8b 45 f8          	mov    -0x8(%rbp),%rax
  401f58:	64 48 33 04 25 28 00 	xor    %fs:0x28,%rax
  401f5f:	00 00 
  401f61:	74 05                	je     401f68 <launch+0xab>
  401f63:	e8 28 ed ff ff       	callq  400c90 <__stack_chk_fail@plt>
  401f68:	c9                   	leaveq 
  401f69:	c3                   	retq   

0000000000401f6a <stable_launch>:
  401f6a:	53                   	push   %rbx
  401f6b:	48 89 3d 56 25 20 00 	mov    %rdi,0x202556(%rip)        # 6044c8 <global_offset>
  401f72:	41 b9 00 00 00 00    	mov    $0x0,%r9d
  401f78:	41 b8 00 00 00 00    	mov    $0x0,%r8d
  401f7e:	b9 32 01 00 00       	mov    $0x132,%ecx
  401f83:	ba 07 00 00 00       	mov    $0x7,%edx
  401f88:	be 00 00 10 00       	mov    $0x100000,%esi
  401f8d:	bf 00 60 58 55       	mov    $0x55586000,%edi
  401f92:	e8 09 ed ff ff       	callq  400ca0 <mmap@plt>
  401f97:	48 89 c3             	mov    %rax,%rbx
  401f9a:	48 3d 00 60 58 55    	cmp    $0x55586000,%rax
  401fa0:	74 37                	je     401fd9 <stable_launch+0x6f>
  401fa2:	be 00 00 10 00       	mov    $0x100000,%esi
  401fa7:	48 89 c7             	mov    %rax,%rdi
  401faa:	e8 e1 ed ff ff       	callq  400d90 <munmap@plt>
  401faf:	b9 00 60 58 55       	mov    $0x55586000,%ecx
  401fb4:	ba 58 34 40 00       	mov    $0x403458,%edx
  401fb9:	be 01 00 00 00       	mov    $0x1,%esi
  401fbe:	48 8b 3d eb 24 20 00 	mov    0x2024eb(%rip),%rdi        # 6044b0 <stderr@@GLIBC_2.2.5>
  401fc5:	b8 00 00 00 00       	mov    $0x0,%eax
  401fca:	e8 41 ee ff ff       	callq  400e10 <__fprintf_chk@plt>
  401fcf:	bf 01 00 00 00       	mov    $0x1,%edi
  401fd4:	e8 17 ee ff ff       	callq  400df0 <exit@plt>
  401fd9:	48 8d 90 f8 ff 0f 00 	lea    0xffff8(%rax),%rdx
  401fe0:	48 89 15 29 31 20 00 	mov    %rdx,0x203129(%rip)        # 605110 <stack_top>
  401fe7:	48 89 e0             	mov    %rsp,%rax
  401fea:	48 89 d4             	mov    %rdx,%rsp
  401fed:	48 89 c2             	mov    %rax,%rdx
  401ff0:	48 89 15 c9 24 20 00 	mov    %rdx,0x2024c9(%rip)        # 6044c0 <global_save_stack>
  401ff7:	48 8b 3d ca 24 20 00 	mov    0x2024ca(%rip),%rdi        # 6044c8 <global_offset>
  401ffe:	e8 ba fe ff ff       	callq  401ebd <launch>
  402003:	48 8b 05 b6 24 20 00 	mov    0x2024b6(%rip),%rax        # 6044c0 <global_save_stack>
  40200a:	48 89 c4             	mov    %rax,%rsp
  40200d:	be 00 00 10 00       	mov    $0x100000,%esi
  402012:	48 89 df             	mov    %rbx,%rdi
  402015:	e8 76 ed ff ff       	callq  400d90 <munmap@plt>
  40201a:	5b                   	pop    %rbx
  40201b:	c3                   	retq   
  40201c:	90                   	nop
  40201d:	90                   	nop
  40201e:	90                   	nop
  40201f:	90                   	nop

0000000000402020 <rio_readinitb>:
  402020:	89 37                	mov    %esi,(%rdi)
  402022:	c7 47 04 00 00 00 00 	movl   $0x0,0x4(%rdi)
  402029:	48 8d 47 10          	lea    0x10(%rdi),%rax
  40202d:	48 89 47 08          	mov    %rax,0x8(%rdi)
  402031:	c3                   	retq   

0000000000402032 <sigalrm_handler>:
  402032:	48 83 ec 08          	sub    $0x8,%rsp
  402036:	b9 00 00 00 00       	mov    $0x0,%ecx
  40203b:	ba 90 34 40 00       	mov    $0x403490,%edx
  402040:	be 01 00 00 00       	mov    $0x1,%esi
  402045:	48 8b 3d 64 24 20 00 	mov    0x202464(%rip),%rdi        # 6044b0 <stderr@@GLIBC_2.2.5>
  40204c:	b8 00 00 00 00       	mov    $0x0,%eax
  402051:	e8 ba ed ff ff       	callq  400e10 <__fprintf_chk@plt>
  402056:	bf 01 00 00 00       	mov    $0x1,%edi
  40205b:	e8 90 ed ff ff       	callq  400df0 <exit@plt>

0000000000402060 <rio_writen>:
  402060:	41 55                	push   %r13
  402062:	41 54                	push   %r12
  402064:	55                   	push   %rbp
  402065:	53                   	push   %rbx
  402066:	48 83 ec 08          	sub    $0x8,%rsp
  40206a:	41 89 fc             	mov    %edi,%r12d
  40206d:	48 89 f5             	mov    %rsi,%rbp
  402070:	49 89 d5             	mov    %rdx,%r13
  402073:	48 89 d3             	mov    %rdx,%rbx
  402076:	eb 28                	jmp    4020a0 <rio_writen+0x40>
  402078:	48 89 da             	mov    %rbx,%rdx
  40207b:	48 89 ee             	mov    %rbp,%rsi
  40207e:	44 89 e7             	mov    %r12d,%edi
  402081:	e8 fa eb ff ff       	callq  400c80 <write@plt>
  402086:	48 85 c0             	test   %rax,%rax
  402089:	7f 0f                	jg     40209a <rio_writen+0x3a>
  40208b:	e8 a0 eb ff ff       	callq  400c30 <__errno_location@plt>
  402090:	83 38 04             	cmpl   $0x4,(%rax)
  402093:	75 15                	jne    4020aa <rio_writen+0x4a>
  402095:	b8 00 00 00 00       	mov    $0x0,%eax
  40209a:	48 29 c3             	sub    %rax,%rbx
  40209d:	48 01 c5             	add    %rax,%rbp
  4020a0:	48 85 db             	test   %rbx,%rbx
  4020a3:	75 d3                	jne    402078 <rio_writen+0x18>
  4020a5:	4c 89 e8             	mov    %r13,%rax
  4020a8:	eb 07                	jmp    4020b1 <rio_writen+0x51>
  4020aa:	48 c7 c0 ff ff ff ff 	mov    $0xffffffffffffffff,%rax
  4020b1:	48 83 c4 08          	add    $0x8,%rsp
  4020b5:	5b                   	pop    %rbx
  4020b6:	5d                   	pop    %rbp
  4020b7:	41 5c                	pop    %r12
  4020b9:	41 5d                	pop    %r13
  4020bb:	c3                   	retq   

00000000004020bc <rio_read>:
  4020bc:	41 56                	push   %r14
  4020be:	41 55                	push   %r13
  4020c0:	41 54                	push   %r12
  4020c2:	55                   	push   %rbp
  4020c3:	53                   	push   %rbx
  4020c4:	48 89 fb             	mov    %rdi,%rbx
  4020c7:	49 89 f6             	mov    %rsi,%r14
  4020ca:	49 89 d5             	mov    %rdx,%r13
  4020cd:	4c 8d 67 10          	lea    0x10(%rdi),%r12
  4020d1:	eb 2a                	jmp    4020fd <rio_read+0x41>
  4020d3:	8b 3b                	mov    (%rbx),%edi
  4020d5:	ba 00 20 00 00       	mov    $0x2000,%edx
  4020da:	4c 89 e6             	mov    %r12,%rsi
  4020dd:	e8 fe eb ff ff       	callq  400ce0 <read@plt>
  4020e2:	89 43 04             	mov    %eax,0x4(%rbx)
  4020e5:	85 c0                	test   %eax,%eax
  4020e7:	79 0c                	jns    4020f5 <rio_read+0x39>
  4020e9:	e8 42 eb ff ff       	callq  400c30 <__errno_location@plt>
  4020ee:	83 38 04             	cmpl   $0x4,(%rax)
  4020f1:	74 0a                	je     4020fd <rio_read+0x41>
  4020f3:	eb 37                	jmp    40212c <rio_read+0x70>
  4020f5:	85 c0                	test   %eax,%eax
  4020f7:	74 3c                	je     402135 <rio_read+0x79>
  4020f9:	4c 89 63 08          	mov    %r12,0x8(%rbx)
  4020fd:	8b 6b 04             	mov    0x4(%rbx),%ebp
  402100:	85 ed                	test   %ebp,%ebp
  402102:	7e cf                	jle    4020d3 <rio_read+0x17>
  402104:	89 e8                	mov    %ebp,%eax
  402106:	4c 39 e8             	cmp    %r13,%rax
  402109:	72 03                	jb     40210e <rio_read+0x52>
  40210b:	44 89 ed             	mov    %r13d,%ebp
  40210e:	4c 63 e5             	movslq %ebp,%r12
  402111:	48 8b 73 08          	mov    0x8(%rbx),%rsi
  402115:	4c 89 e2             	mov    %r12,%rdx
  402118:	4c 89 f7             	mov    %r14,%rdi
  40211b:	e8 20 ec ff ff       	callq  400d40 <memcpy@plt>
  402120:	4c 01 63 08          	add    %r12,0x8(%rbx)
  402124:	29 6b 04             	sub    %ebp,0x4(%rbx)
  402127:	4c 89 e0             	mov    %r12,%rax
  40212a:	eb 0e                	jmp    40213a <rio_read+0x7e>
  40212c:	48 c7 c0 ff ff ff ff 	mov    $0xffffffffffffffff,%rax
  402133:	eb 05                	jmp    40213a <rio_read+0x7e>
  402135:	b8 00 00 00 00       	mov    $0x0,%eax
  40213a:	5b                   	pop    %rbx
  40213b:	5d                   	pop    %rbp
  40213c:	41 5c                	pop    %r12
  40213e:	41 5d                	pop    %r13
  402140:	41 5e                	pop    %r14
  402142:	c3                   	retq   

0000000000402143 <rio_readlineb>:
  402143:	41 55                	push   %r13
  402145:	41 54                	push   %r12
  402147:	55                   	push   %rbp
  402148:	53                   	push   %rbx
  402149:	48 83 ec 18          	sub    $0x18,%rsp
  40214d:	49 89 fd             	mov    %rdi,%r13
  402150:	48 89 f5             	mov    %rsi,%rbp
  402153:	49 89 d4             	mov    %rdx,%r12
  402156:	bb 01 00 00 00       	mov    $0x1,%ebx
  40215b:	eb 3e                	jmp    40219b <rio_readlineb+0x58>
  40215d:	ba 01 00 00 00       	mov    $0x1,%edx
  402162:	48 8d 74 24 0f       	lea    0xf(%rsp),%rsi
  402167:	4c 89 ef             	mov    %r13,%rdi
  40216a:	e8 4d ff ff ff       	callq  4020bc <rio_read>
  40216f:	83 f8 01             	cmp    $0x1,%eax
  402172:	75 12                	jne    402186 <rio_readlineb+0x43>
  402174:	48 8d 55 01          	lea    0x1(%rbp),%rdx
  402178:	0f b6 44 24 0f       	movzbl 0xf(%rsp),%eax
  40217d:	88 45 00             	mov    %al,0x0(%rbp)
  402180:	3c 0a                	cmp    $0xa,%al
  402182:	75 10                	jne    402194 <rio_readlineb+0x51>
  402184:	eb 1c                	jmp    4021a2 <rio_readlineb+0x5f>
  402186:	85 c0                	test   %eax,%eax
  402188:	75 24                	jne    4021ae <rio_readlineb+0x6b>
  40218a:	48 83 fb 01          	cmp    $0x1,%rbx
  40218e:	66 90                	xchg   %ax,%ax
  402190:	75 13                	jne    4021a5 <rio_readlineb+0x62>
  402192:	eb 23                	jmp    4021b7 <rio_readlineb+0x74>
  402194:	48 83 c3 01          	add    $0x1,%rbx
  402198:	48 89 d5             	mov    %rdx,%rbp
  40219b:	4c 39 e3             	cmp    %r12,%rbx
  40219e:	72 bd                	jb     40215d <rio_readlineb+0x1a>
  4021a0:	eb 03                	jmp    4021a5 <rio_readlineb+0x62>
  4021a2:	48 89 d5             	mov    %rdx,%rbp
  4021a5:	c6 45 00 00          	movb   $0x0,0x0(%rbp)
  4021a9:	48 89 d8             	mov    %rbx,%rax
  4021ac:	eb 0e                	jmp    4021bc <rio_readlineb+0x79>
  4021ae:	48 c7 c0 ff ff ff ff 	mov    $0xffffffffffffffff,%rax
  4021b5:	eb 05                	jmp    4021bc <rio_readlineb+0x79>
  4021b7:	b8 00 00 00 00       	mov    $0x0,%eax
  4021bc:	48 83 c4 18          	add    $0x18,%rsp
  4021c0:	5b                   	pop    %rbx
  4021c1:	5d                   	pop    %rbp
  4021c2:	41 5c                	pop    %r12
  4021c4:	41 5d                	pop    %r13
  4021c6:	c3                   	retq   

00000000004021c7 <urlencode>:
  4021c7:	41 54                	push   %r12
  4021c9:	55                   	push   %rbp
  4021ca:	53                   	push   %rbx
  4021cb:	48 83 ec 10          	sub    $0x10,%rsp
  4021cf:	48 89 fb             	mov    %rdi,%rbx
  4021d2:	48 89 f5             	mov    %rsi,%rbp
  4021d5:	64 48 8b 04 25 28 00 	mov    %fs:0x28,%rax
  4021dc:	00 00 
  4021de:	48 89 44 24 08       	mov    %rax,0x8(%rsp)
  4021e3:	31 c0                	xor    %eax,%eax
  4021e5:	48 c7 c1 ff ff ff ff 	mov    $0xffffffffffffffff,%rcx
  4021ec:	f2 ae                	repnz scas %es:(%rdi),%al
  4021ee:	48 f7 d1             	not    %rcx
  4021f1:	8d 41 ff             	lea    -0x1(%rcx),%eax
  4021f4:	e9 aa 00 00 00       	jmpq   4022a3 <urlencode+0xdc>
  4021f9:	44 0f b6 03          	movzbl (%rbx),%r8d
  4021fd:	41 80 f8 2a          	cmp    $0x2a,%r8b
  402201:	0f 94 c2             	sete   %dl
  402204:	41 80 f8 2d          	cmp    $0x2d,%r8b
  402208:	0f 94 c0             	sete   %al
  40220b:	08 c2                	or     %al,%dl
  40220d:	75 24                	jne    402233 <urlencode+0x6c>
  40220f:	41 80 f8 2e          	cmp    $0x2e,%r8b
  402213:	74 1e                	je     402233 <urlencode+0x6c>
  402215:	41 80 f8 5f          	cmp    $0x5f,%r8b
  402219:	74 18                	je     402233 <urlencode+0x6c>
  40221b:	41 8d 40 d0          	lea    -0x30(%r8),%eax
  40221f:	3c 09                	cmp    $0x9,%al
  402221:	76 10                	jbe    402233 <urlencode+0x6c>
  402223:	41 8d 40 bf          	lea    -0x41(%r8),%eax
  402227:	3c 19                	cmp    $0x19,%al
  402229:	76 08                	jbe    402233 <urlencode+0x6c>
  40222b:	41 8d 40 9f          	lea    -0x61(%r8),%eax
  40222f:	3c 19                	cmp    $0x19,%al
  402231:	77 0a                	ja     40223d <urlencode+0x76>
  402233:	44 88 45 00          	mov    %r8b,0x0(%rbp)
  402237:	48 8d 6d 01          	lea    0x1(%rbp),%rbp
  40223b:	eb 5f                	jmp    40229c <urlencode+0xd5>
  40223d:	41 80 f8 20          	cmp    $0x20,%r8b
  402241:	75 0a                	jne    40224d <urlencode+0x86>
  402243:	c6 45 00 2b          	movb   $0x2b,0x0(%rbp)
  402247:	48 8d 6d 01          	lea    0x1(%rbp),%rbp
  40224b:	eb 4f                	jmp    40229c <urlencode+0xd5>
  40224d:	41 8d 40 e0          	lea    -0x20(%r8),%eax
  402251:	3c 5f                	cmp    $0x5f,%al
  402253:	0f 96 c2             	setbe  %dl
  402256:	41 80 f8 09          	cmp    $0x9,%r8b
  40225a:	0f 94 c0             	sete   %al
  40225d:	08 c2                	or     %al,%dl
  40225f:	74 50                	je     4022b1 <urlencode+0xea>
  402261:	45 0f b6 c0          	movzbl %r8b,%r8d
  402265:	b9 28 35 40 00       	mov    $0x403528,%ecx
  40226a:	ba 08 00 00 00       	mov    $0x8,%edx
  40226f:	be 01 00 00 00       	mov    $0x1,%esi
  402274:	48 89 e7             	mov    %rsp,%rdi
  402277:	b8 00 00 00 00       	mov    $0x0,%eax
  40227c:	e8 9f eb ff ff       	callq  400e20 <__sprintf_chk@plt>
  402281:	0f b6 04 24          	movzbl (%rsp),%eax
  402285:	88 45 00             	mov    %al,0x0(%rbp)
  402288:	0f b6 44 24 01       	movzbl 0x1(%rsp),%eax
  40228d:	88 45 01             	mov    %al,0x1(%rbp)
  402290:	0f b6 44 24 02       	movzbl 0x2(%rsp),%eax
  402295:	88 45 02             	mov    %al,0x2(%rbp)
  402298:	48 8d 6d 03          	lea    0x3(%rbp),%rbp
  40229c:	48 83 c3 01          	add    $0x1,%rbx
  4022a0:	44 89 e0             	mov    %r12d,%eax
  4022a3:	44 8d 60 ff          	lea    -0x1(%rax),%r12d
  4022a7:	85 c0                	test   %eax,%eax
  4022a9:	0f 85 4a ff ff ff    	jne    4021f9 <urlencode+0x32>
  4022af:	eb 05                	jmp    4022b6 <urlencode+0xef>
  4022b1:	b8 ff ff ff ff       	mov    $0xffffffff,%eax
  4022b6:	48 8b 74 24 08       	mov    0x8(%rsp),%rsi
  4022bb:	64 48 33 34 25 28 00 	xor    %fs:0x28,%rsi
  4022c2:	00 00 
  4022c4:	74 05                	je     4022cb <urlencode+0x104>
  4022c6:	e8 c5 e9 ff ff       	callq  400c90 <__stack_chk_fail@plt>
  4022cb:	48 83 c4 10          	add    $0x10,%rsp
  4022cf:	5b                   	pop    %rbx
  4022d0:	5d                   	pop    %rbp
  4022d1:	41 5c                	pop    %r12
  4022d3:	c3                   	retq   

00000000004022d4 <submitr>:
  4022d4:	41 57                	push   %r15
  4022d6:	41 56                	push   %r14
  4022d8:	41 55                	push   %r13
  4022da:	41 54                	push   %r12
  4022dc:	55                   	push   %rbp
  4022dd:	53                   	push   %rbx
  4022de:	48 81 ec 68 a0 00 00 	sub    $0xa068,%rsp
  4022e5:	49 89 fc             	mov    %rdi,%r12
  4022e8:	89 74 24 14          	mov    %esi,0x14(%rsp)
  4022ec:	49 89 d7             	mov    %rdx,%r15
  4022ef:	49 89 ce             	mov    %rcx,%r14
  4022f2:	4c 89 44 24 18       	mov    %r8,0x18(%rsp)
  4022f7:	4d 89 cd             	mov    %r9,%r13
  4022fa:	48 8b 9c 24 a0 a0 00 	mov    0xa0a0(%rsp),%rbx
  402301:	00 
  402302:	64 48 8b 04 25 28 00 	mov    %fs:0x28,%rax
  402309:	00 00 
  40230b:	48 89 84 24 58 a0 00 	mov    %rax,0xa058(%rsp)
  402312:	00 
  402313:	31 c0                	xor    %eax,%eax
  402315:	c7 44 24 2c 00 00 00 	movl   $0x0,0x2c(%rsp)
  40231c:	00 
  40231d:	ba 00 00 00 00       	mov    $0x0,%edx
  402322:	be 01 00 00 00       	mov    $0x1,%esi
  402327:	bf 02 00 00 00       	mov    $0x2,%edi
  40232c:	e8 ff ea ff ff       	callq  400e30 <socket@plt>
  402331:	89 c5                	mov    %eax,%ebp
  402333:	85 c0                	test   %eax,%eax
  402335:	79 4e                	jns    402385 <submitr+0xb1>
  402337:	48 b8 45 72 72 6f 72 	movabs $0x43203a726f727245,%rax
  40233e:	3a 20 43 
  402341:	48 89 03             	mov    %rax,(%rbx)
  402344:	48 b8 6c 69 65 6e 74 	movabs $0x6e7520746e65696c,%rax
  40234b:	20 75 6e 
  40234e:	48 89 43 08          	mov    %rax,0x8(%rbx)
  402352:	48 b8 61 62 6c 65 20 	movabs $0x206f7420656c6261,%rax
  402359:	74 6f 20 
  40235c:	48 89 43 10          	mov    %rax,0x10(%rbx)
  402360:	48 b8 63 72 65 61 74 	movabs $0x7320657461657263,%rax
  402367:	65 20 73 
  40236a:	48 89 43 18          	mov    %rax,0x18(%rbx)
  40236e:	c7 43 20 6f 63 6b 65 	movl   $0x656b636f,0x20(%rbx)
  402375:	66 c7 43 24 74 00    	movw   $0x74,0x24(%rbx)
  40237b:	b8 ff ff ff ff       	mov    $0xffffffff,%eax
  402380:	e9 55 06 00 00       	jmpq   4029da <submitr+0x706>
  402385:	4c 89 e7             	mov    %r12,%rdi
  402388:	e8 83 e9 ff ff       	callq  400d10 <gethostbyname@plt>
  40238d:	48 85 c0             	test   %rax,%rax
  402390:	75 67                	jne    4023f9 <submitr+0x125>
  402392:	48 b8 45 72 72 6f 72 	movabs $0x44203a726f727245,%rax
  402399:	3a 20 44 
  40239c:	48 89 03             	mov    %rax,(%rbx)
  40239f:	48 b8 4e 53 20 69 73 	movabs $0x6e7520736920534e,%rax
  4023a6:	20 75 6e 
  4023a9:	48 89 43 08          	mov    %rax,0x8(%rbx)
  4023ad:	48 b8 61 62 6c 65 20 	movabs $0x206f7420656c6261,%rax
  4023b4:	74 6f 20 
  4023b7:	48 89 43 10          	mov    %rax,0x10(%rbx)
  4023bb:	48 b8 72 65 73 6f 6c 	movabs $0x2065766c6f736572,%rax
  4023c2:	76 65 20 
  4023c5:	48 89 43 18          	mov    %rax,0x18(%rbx)
  4023c9:	48 b8 73 65 72 76 65 	movabs $0x6120726576726573,%rax
  4023d0:	72 20 61 
  4023d3:	48 89 43 20          	mov    %rax,0x20(%rbx)
  4023d7:	c7 43 28 64 64 72 65 	movl   $0x65726464,0x28(%rbx)
  4023de:	66 c7 43 2c 73 73    	movw   $0x7373,0x2c(%rbx)
  4023e4:	c6 43 2e 00          	movb   $0x0,0x2e(%rbx)
  4023e8:	89 ef                	mov    %ebp,%edi
  4023ea:	e8 e1 e8 ff ff       	callq  400cd0 <close@plt>
  4023ef:	b8 ff ff ff ff       	mov    $0xffffffff,%eax
  4023f4:	e9 e1 05 00 00       	jmpq   4029da <submitr+0x706>
  4023f9:	48 c7 44 24 30 00 00 	movq   $0x0,0x30(%rsp)
  402400:	00 00 
  402402:	48 c7 44 24 38 00 00 	movq   $0x0,0x38(%rsp)
  402409:	00 00 
  40240b:	66 c7 44 24 30 02 00 	movw   $0x2,0x30(%rsp)
  402412:	48 63 50 14          	movslq 0x14(%rax),%rdx
  402416:	48 8b 40 18          	mov    0x18(%rax),%rax
  40241a:	48 8b 30             	mov    (%rax),%rsi
  40241d:	48 8d 7c 24 34       	lea    0x34(%rsp),%rdi
  402422:	b9 0c 00 00 00       	mov    $0xc,%ecx
  402427:	e8 f4 e8 ff ff       	callq  400d20 <__memmove_chk@plt>
  40242c:	0f b7 44 24 14       	movzwl 0x14(%rsp),%eax
  402431:	66 c1 c8 08          	ror    $0x8,%ax
  402435:	66 89 44 24 32       	mov    %ax,0x32(%rsp)
  40243a:	ba 10 00 00 00       	mov    $0x10,%edx
  40243f:	48 8d 74 24 30       	lea    0x30(%rsp),%rsi
  402444:	89 ef                	mov    %ebp,%edi
  402446:	e8 b5 e9 ff ff       	callq  400e00 <connect@plt>
  40244b:	85 c0                	test   %eax,%eax
  40244d:	79 59                	jns    4024a8 <submitr+0x1d4>
  40244f:	48 b8 45 72 72 6f 72 	movabs $0x55203a726f727245,%rax
  402456:	3a 20 55 
  402459:	48 89 03             	mov    %rax,(%rbx)
  40245c:	48 b8 6e 61 62 6c 65 	movabs $0x6f7420656c62616e,%rax
  402463:	20 74 6f 
  402466:	48 89 43 08          	mov    %rax,0x8(%rbx)
  40246a:	48 b8 20 63 6f 6e 6e 	movabs $0x7463656e6e6f6320,%rax
  402471:	65 63 74 
  402474:	48 89 43 10          	mov    %rax,0x10(%rbx)
  402478:	48 b8 20 74 6f 20 74 	movabs $0x20656874206f7420,%rax
  40247f:	68 65 20 
  402482:	48 89 43 18          	mov    %rax,0x18(%rbx)
  402486:	c7 43 20 73 65 72 76 	movl   $0x76726573,0x20(%rbx)
  40248d:	66 c7 43 24 65 72    	movw   $0x7265,0x24(%rbx)
  402493:	c6 43 26 00          	movb   $0x0,0x26(%rbx)
  402497:	89 ef                	mov    %ebp,%edi
  402499:	e8 32 e8 ff ff       	callq  400cd0 <close@plt>
  40249e:	b8 ff ff ff ff       	mov    $0xffffffff,%eax
  4024a3:	e9 32 05 00 00       	jmpq   4029da <submitr+0x706>
  4024a8:	48 c7 c2 ff ff ff ff 	mov    $0xffffffffffffffff,%rdx
  4024af:	4c 89 ef             	mov    %r13,%rdi
  4024b2:	b8 00 00 00 00       	mov    $0x0,%eax
  4024b7:	48 89 d1             	mov    %rdx,%rcx
  4024ba:	f2 ae                	repnz scas %es:(%rdi),%al
  4024bc:	48 f7 d1             	not    %rcx
  4024bf:	48 89 ce             	mov    %rcx,%rsi
  4024c2:	4c 89 ff             	mov    %r15,%rdi
  4024c5:	48 89 d1             	mov    %rdx,%rcx
  4024c8:	f2 ae                	repnz scas %es:(%rdi),%al
  4024ca:	48 f7 d1             	not    %rcx
  4024cd:	49 89 c8             	mov    %rcx,%r8
  4024d0:	4c 89 f7             	mov    %r14,%rdi
  4024d3:	48 89 d1             	mov    %rdx,%rcx
  4024d6:	f2 ae                	repnz scas %es:(%rdi),%al
  4024d8:	49 29 c8             	sub    %rcx,%r8
  4024db:	48 8b 7c 24 18       	mov    0x18(%rsp),%rdi
  4024e0:	48 89 d1             	mov    %rdx,%rcx
  4024e3:	f2 ae                	repnz scas %es:(%rdi),%al
  4024e5:	49 29 c8             	sub    %rcx,%r8
  4024e8:	48 8d 44 76 fd       	lea    -0x3(%rsi,%rsi,2),%rax
  4024ed:	49 8d 44 00 7b       	lea    0x7b(%r8,%rax,1),%rax
  4024f2:	48 3d 00 20 00 00    	cmp    $0x2000,%rax
  4024f8:	76 72                	jbe    40256c <submitr+0x298>
  4024fa:	48 b8 45 72 72 6f 72 	movabs $0x52203a726f727245,%rax
  402501:	3a 20 52 
  402504:	48 89 03             	mov    %rax,(%rbx)
  402507:	48 b8 65 73 75 6c 74 	movabs $0x747320746c757365,%rax
  40250e:	20 73 74 
  402511:	48 89 43 08          	mov    %rax,0x8(%rbx)
  402515:	48 b8 72 69 6e 67 20 	movabs $0x6f6f7420676e6972,%rax
  40251c:	74 6f 6f 
  40251f:	48 89 43 10          	mov    %rax,0x10(%rbx)
  402523:	48 b8 20 6c 61 72 67 	movabs $0x202e656772616c20,%rax
  40252a:	65 2e 20 
  40252d:	48 89 43 18          	mov    %rax,0x18(%rbx)
  402531:	48 b8 49 6e 63 72 65 	movabs $0x6573616572636e49,%rax
  402538:	61 73 65 
  40253b:	48 89 43 20          	mov    %rax,0x20(%rbx)
  40253f:	48 b8 20 53 55 42 4d 	movabs $0x5254494d42555320,%rax
  402546:	49 54 52 
  402549:	48 89 43 28          	mov    %rax,0x28(%rbx)
  40254d:	48 b8 5f 4d 41 58 42 	movabs $0x46554258414d5f,%rax
  402554:	55 46 00 
  402557:	48 89 43 30          	mov    %rax,0x30(%rbx)
  40255b:	89 ef                	mov    %ebp,%edi
  40255d:	e8 6e e7 ff ff       	callq  400cd0 <close@plt>
  402562:	b8 ff ff ff ff       	mov    $0xffffffff,%eax
  402567:	e9 6e 04 00 00       	jmpq   4029da <submitr+0x706>
  40256c:	48 8d b4 24 40 20 00 	lea    0x2040(%rsp),%rsi
  402573:	00 
  402574:	b9 00 04 00 00       	mov    $0x400,%ecx
  402579:	b8 00 00 00 00       	mov    $0x0,%eax
  40257e:	48 89 f7             	mov    %rsi,%rdi
  402581:	f3 48 ab             	rep stos %rax,%es:(%rdi)
  402584:	4c 89 ef             	mov    %r13,%rdi
  402587:	e8 3b fc ff ff       	callq  4021c7 <urlencode>
  40258c:	85 c0                	test   %eax,%eax
  40258e:	0f 89 8a 00 00 00    	jns    40261e <submitr+0x34a>
  402594:	48 b8 45 72 72 6f 72 	movabs $0x52203a726f727245,%rax
  40259b:	3a 20 52 
  40259e:	48 89 03             	mov    %rax,(%rbx)
  4025a1:	48 b8 65 73 75 6c 74 	movabs $0x747320746c757365,%rax
  4025a8:	20 73 74 
  4025ab:	48 89 43 08          	mov    %rax,0x8(%rbx)
  4025af:	48 b8 72 69 6e 67 20 	movabs $0x6e6f6320676e6972,%rax
  4025b6:	63 6f 6e 
  4025b9:	48 89 43 10          	mov    %rax,0x10(%rbx)
  4025bd:	48 b8 74 61 69 6e 73 	movabs $0x6e6120736e696174,%rax
  4025c4:	20 61 6e 
  4025c7:	48 89 43 18          	mov    %rax,0x18(%rbx)
  4025cb:	48 b8 20 69 6c 6c 65 	movabs $0x6c6167656c6c6920,%rax
  4025d2:	67 61 6c 
  4025d5:	48 89 43 20          	mov    %rax,0x20(%rbx)
  4025d9:	48 b8 20 6f 72 20 75 	movabs $0x72706e7520726f20,%rax
  4025e0:	6e 70 72 
  4025e3:	48 89 43 28          	mov    %rax,0x28(%rbx)
  4025e7:	48 b8 69 6e 74 61 62 	movabs $0x20656c6261746e69,%rax
  4025ee:	6c 65 20 
  4025f1:	48 89 43 30          	mov    %rax,0x30(%rbx)
  4025f5:	48 b8 63 68 61 72 61 	movabs $0x6574636172616863,%rax
  4025fc:	63 74 65 
  4025ff:	48 89 43 38          	mov    %rax,0x38(%rbx)
  402603:	66 c7 43 40 72 2e    	movw   $0x2e72,0x40(%rbx)
  402609:	c6 43 42 00          	movb   $0x0,0x42(%rbx)
  40260d:	89 ef                	mov    %ebp,%edi
  40260f:	e8 bc e6 ff ff       	callq  400cd0 <close@plt>
  402614:	b8 ff ff ff ff       	mov    $0xffffffff,%eax
  402619:	e9 bc 03 00 00       	jmpq   4029da <submitr+0x706>
  40261e:	4c 89 64 24 08       	mov    %r12,0x8(%rsp)
  402623:	48 8d 84 24 40 20 00 	lea    0x2040(%rsp),%rax
  40262a:	00 
  40262b:	48 89 04 24          	mov    %rax,(%rsp)
  40262f:	4d 89 f9             	mov    %r15,%r9
  402632:	4d 89 f0             	mov    %r14,%r8
  402635:	b9 b8 34 40 00       	mov    $0x4034b8,%ecx
  40263a:	ba 00 20 00 00       	mov    $0x2000,%edx
  40263f:	be 01 00 00 00       	mov    $0x1,%esi
  402644:	48 8d 7c 24 40       	lea    0x40(%rsp),%rdi
  402649:	b8 00 00 00 00       	mov    $0x0,%eax
  40264e:	e8 cd e7 ff ff       	callq  400e20 <__sprintf_chk@plt>
  402653:	48 8d 7c 24 40       	lea    0x40(%rsp),%rdi
  402658:	b8 00 00 00 00       	mov    $0x0,%eax
  40265d:	48 c7 c1 ff ff ff ff 	mov    $0xffffffffffffffff,%rcx
  402664:	f2 ae                	repnz scas %es:(%rdi),%al
  402666:	48 f7 d1             	not    %rcx
  402669:	48 8d 51 ff          	lea    -0x1(%rcx),%rdx
  40266d:	48 8d 74 24 40       	lea    0x40(%rsp),%rsi
  402672:	89 ef                	mov    %ebp,%edi
  402674:	e8 e7 f9 ff ff       	callq  402060 <rio_writen>
  402679:	48 85 c0             	test   %rax,%rax
  40267c:	79 6e                	jns    4026ec <submitr+0x418>
  40267e:	48 b8 45 72 72 6f 72 	movabs $0x43203a726f727245,%rax
  402685:	3a 20 43 
  402688:	48 89 03             	mov    %rax,(%rbx)
  40268b:	48 b8 6c 69 65 6e 74 	movabs $0x6e7520746e65696c,%rax
  402692:	20 75 6e 
  402695:	48 89 43 08          	mov    %rax,0x8(%rbx)
  402699:	48 b8 61 62 6c 65 20 	movabs $0x206f7420656c6261,%rax
  4026a0:	74 6f 20 
  4026a3:	48 89 43 10          	mov    %rax,0x10(%rbx)
  4026a7:	48 b8 77 72 69 74 65 	movabs $0x6f74206574697277,%rax
  4026ae:	20 74 6f 
  4026b1:	48 89 43 18          	mov    %rax,0x18(%rbx)
  4026b5:	48 b8 20 74 68 65 20 	movabs $0x7365722065687420,%rax
  4026bc:	72 65 73 
  4026bf:	48 89 43 20          	mov    %rax,0x20(%rbx)
  4026c3:	48 b8 75 6c 74 20 73 	movabs $0x7672657320746c75,%rax
  4026ca:	65 72 76 
  4026cd:	48 89 43 28          	mov    %rax,0x28(%rbx)
  4026d1:	66 c7 43 30 65 72    	movw   $0x7265,0x30(%rbx)
  4026d7:	c6 43 32 00          	movb   $0x0,0x32(%rbx)
  4026db:	89 ef                	mov    %ebp,%edi
  4026dd:	e8 ee e5 ff ff       	callq  400cd0 <close@plt>
  4026e2:	b8 ff ff ff ff       	mov    $0xffffffff,%eax
  4026e7:	e9 ee 02 00 00       	jmpq   4029da <submitr+0x706>
  4026ec:	89 ee                	mov    %ebp,%esi
  4026ee:	48 8d bc 24 40 80 00 	lea    0x8040(%rsp),%rdi
  4026f5:	00 
  4026f6:	e8 25 f9 ff ff       	callq  402020 <rio_readinitb>
  4026fb:	ba 00 20 00 00       	mov    $0x2000,%edx
  402700:	48 8d 74 24 40       	lea    0x40(%rsp),%rsi
  402705:	48 8d bc 24 40 80 00 	lea    0x8040(%rsp),%rdi
  40270c:	00 
  40270d:	e8 31 fa ff ff       	callq  402143 <rio_readlineb>
  402712:	48 85 c0             	test   %rax,%rax
  402715:	7f 7d                	jg     402794 <submitr+0x4c0>
  402717:	48 b8 45 72 72 6f 72 	movabs $0x43203a726f727245,%rax
  40271e:	3a 20 43 
  402721:	48 89 03             	mov    %rax,(%rbx)
  402724:	48 b8 6c 69 65 6e 74 	movabs $0x6e7520746e65696c,%rax
  40272b:	20 75 6e 
  40272e:	48 89 43 08          	mov    %rax,0x8(%rbx)
  402732:	48 b8 61 62 6c 65 20 	movabs $0x206f7420656c6261,%rax
  402739:	74 6f 20 
  40273c:	48 89 43 10          	mov    %rax,0x10(%rbx)
  402740:	48 b8 72 65 61 64 20 	movabs $0x7269662064616572,%rax
  402747:	66 69 72 
  40274a:	48 89 43 18          	mov    %rax,0x18(%rbx)
  40274e:	48 b8 73 74 20 68 65 	movabs $0x6564616568207473,%rax
  402755:	61 64 65 
  402758:	48 89 43 20          	mov    %rax,0x20(%rbx)
  40275c:	48 b8 72 20 66 72 6f 	movabs $0x72206d6f72662072,%rax
  402763:	6d 20 72 
  402766:	48 89 43 28          	mov    %rax,0x28(%rbx)
  40276a:	48 b8 65 73 75 6c 74 	movabs $0x657320746c757365,%rax
  402771:	20 73 65 
  402774:	48 89 43 30          	mov    %rax,0x30(%rbx)
  402778:	c7 43 38 72 76 65 72 	movl   $0x72657672,0x38(%rbx)
  40277f:	c6 43 3c 00          	movb   $0x0,0x3c(%rbx)
  402783:	89 ef                	mov    %ebp,%edi
  402785:	e8 46 e5 ff ff       	callq  400cd0 <close@plt>
  40278a:	b8 ff ff ff ff       	mov    $0xffffffff,%eax
  40278f:	e9 46 02 00 00       	jmpq   4029da <submitr+0x706>
  402794:	4c 8d 84 24 40 60 00 	lea    0x6040(%rsp),%r8
  40279b:	00 
  40279c:	48 8d 4c 24 2c       	lea    0x2c(%rsp),%rcx
  4027a1:	48 8d 94 24 40 40 00 	lea    0x4040(%rsp),%rdx
  4027a8:	00 
  4027a9:	be 2f 35 40 00       	mov    $0x40352f,%esi
  4027ae:	48 8d 7c 24 40       	lea    0x40(%rsp),%rdi
  4027b3:	b8 00 00 00 00       	mov    $0x0,%eax
  4027b8:	e8 c3 e5 ff ff       	callq  400d80 <__isoc99_sscanf@plt>
  4027bd:	e9 95 00 00 00       	jmpq   402857 <submitr+0x583>
  4027c2:	ba 00 20 00 00       	mov    $0x2000,%edx
  4027c7:	48 8d 74 24 40       	lea    0x40(%rsp),%rsi
  4027cc:	48 8d bc 24 40 80 00 	lea    0x8040(%rsp),%rdi
  4027d3:	00 
  4027d4:	e8 6a f9 ff ff       	callq  402143 <rio_readlineb>
  4027d9:	48 85 c0             	test   %rax,%rax
  4027dc:	7f 79                	jg     402857 <submitr+0x583>
  4027de:	48 b8 45 72 72 6f 72 	movabs $0x43203a726f727245,%rax
  4027e5:	3a 20 43 
  4027e8:	48 89 03             	mov    %rax,(%rbx)
  4027eb:	48 b8 6c 69 65 6e 74 	movabs $0x6e7520746e65696c,%rax
  4027f2:	20 75 6e 
  4027f5:	48 89 43 08          	mov    %rax,0x8(%rbx)
  4027f9:	48 b8 61 62 6c 65 20 	movabs $0x206f7420656c6261,%rax
  402800:	74 6f 20 
  402803:	48 89 43 10          	mov    %rax,0x10(%rbx)
  402807:	48 b8 72 65 61 64 20 	movabs $0x6165682064616572,%rax
  40280e:	68 65 61 
  402811:	48 89 43 18          	mov    %rax,0x18(%rbx)
  402815:	48 b8 64 65 72 73 20 	movabs $0x6f72662073726564,%rax
  40281c:	66 72 6f 
  40281f:	48 89 43 20          	mov    %rax,0x20(%rbx)
  402823:	48 b8 6d 20 74 68 65 	movabs $0x657220656874206d,%rax
  40282a:	20 72 65 
  40282d:	48 89 43 28          	mov    %rax,0x28(%rbx)
  402831:	48 b8 73 75 6c 74 20 	movabs $0x72657320746c7573,%rax
  402838:	73 65 72 
  40283b:	48 89 43 30          	mov    %rax,0x30(%rbx)
  40283f:	c7 43 38 76 65 72 00 	movl   $0x726576,0x38(%rbx)
  402846:	89 ef                	mov    %ebp,%edi
  402848:	e8 83 e4 ff ff       	callq  400cd0 <close@plt>
  40284d:	b8 ff ff ff ff       	mov    $0xffffffff,%eax
  402852:	e9 83 01 00 00       	jmpq   4029da <submitr+0x706>
  402857:	0f b6 44 24 40       	movzbl 0x40(%rsp),%eax
  40285c:	83 e8 0d             	sub    $0xd,%eax
  40285f:	75 0f                	jne    402870 <submitr+0x59c>
  402861:	0f b6 44 24 41       	movzbl 0x41(%rsp),%eax
  402866:	83 e8 0a             	sub    $0xa,%eax
  402869:	75 05                	jne    402870 <submitr+0x59c>
  40286b:	0f b6 44 24 42       	movzbl 0x42(%rsp),%eax
  402870:	85 c0                	test   %eax,%eax
  402872:	0f 85 4a ff ff ff    	jne    4027c2 <submitr+0x4ee>
  402878:	ba 00 20 00 00       	mov    $0x2000,%edx
  40287d:	48 8d 74 24 40       	lea    0x40(%rsp),%rsi
  402882:	48 8d bc 24 40 80 00 	lea    0x8040(%rsp),%rdi
  402889:	00 
  40288a:	e8 b4 f8 ff ff       	callq  402143 <rio_readlineb>
  40288f:	48 85 c0             	test   %rax,%rax
  402892:	0f 8f 83 00 00 00    	jg     40291b <submitr+0x647>
  402898:	48 b8 45 72 72 6f 72 	movabs $0x43203a726f727245,%rax
  40289f:	3a 20 43 
  4028a2:	48 89 03             	mov    %rax,(%rbx)
  4028a5:	48 b8 6c 69 65 6e 74 	movabs $0x6e7520746e65696c,%rax
  4028ac:	20 75 6e 
  4028af:	48 89 43 08          	mov    %rax,0x8(%rbx)
  4028b3:	48 b8 61 62 6c 65 20 	movabs $0x206f7420656c6261,%rax
  4028ba:	74 6f 20 
  4028bd:	48 89 43 10          	mov    %rax,0x10(%rbx)
  4028c1:	48 b8 72 65 61 64 20 	movabs $0x6174732064616572,%rax
  4028c8:	73 74 61 
  4028cb:	48 89 43 18          	mov    %rax,0x18(%rbx)
  4028cf:	48 b8 74 75 73 20 6d 	movabs $0x7373656d20737574,%rax
  4028d6:	65 73 73 
  4028d9:	48 89 43 20          	mov    %rax,0x20(%rbx)
  4028dd:	48 b8 61 67 65 20 66 	movabs $0x6d6f726620656761,%rax
  4028e4:	72 6f 6d 
  4028e7:	48 89 43 28          	mov    %rax,0x28(%rbx)
  4028eb:	48 b8 20 72 65 73 75 	movabs $0x20746c7573657220,%rax
  4028f2:	6c 74 20 
  4028f5:	48 89 43 30          	mov    %rax,0x30(%rbx)
  4028f9:	c7 43 38 73 65 72 76 	movl   $0x76726573,0x38(%rbx)
  402900:	66 c7 43 3c 65 72    	movw   $0x7265,0x3c(%rbx)
  402906:	c6 43 3e 00          	movb   $0x0,0x3e(%rbx)
  40290a:	89 ef                	mov    %ebp,%edi
  40290c:	e8 bf e3 ff ff       	callq  400cd0 <close@plt>
  402911:	b8 ff ff ff ff       	mov    $0xffffffff,%eax
  402916:	e9 bf 00 00 00       	jmpq   4029da <submitr+0x706>
  40291b:	44 8b 44 24 2c       	mov    0x2c(%rsp),%r8d
  402920:	41 81 f8 c8 00 00 00 	cmp    $0xc8,%r8d
  402927:	74 34                	je     40295d <submitr+0x689>
  402929:	4c 8d 8c 24 40 60 00 	lea    0x6040(%rsp),%r9
  402930:	00 
  402931:	b9 f8 34 40 00       	mov    $0x4034f8,%ecx
  402936:	48 c7 c2 ff ff ff ff 	mov    $0xffffffffffffffff,%rdx
  40293d:	be 01 00 00 00       	mov    $0x1,%esi
  402942:	48 89 df             	mov    %rbx,%rdi
  402945:	b8 00 00 00 00       	mov    $0x0,%eax
  40294a:	e8 d1 e4 ff ff       	callq  400e20 <__sprintf_chk@plt>
  40294f:	89 ef                	mov    %ebp,%edi
  402951:	e8 7a e3 ff ff       	callq  400cd0 <close@plt>
  402956:	b8 ff ff ff ff       	mov    $0xffffffff,%eax
  40295b:	eb 7d                	jmp    4029da <submitr+0x706>
  40295d:	48 8d 74 24 40       	lea    0x40(%rsp),%rsi
  402962:	48 89 df             	mov    %rbx,%rdi
  402965:	e8 f6 e2 ff ff       	callq  400c60 <strcpy@plt>
  40296a:	89 ef                	mov    %ebp,%edi
  40296c:	e8 5f e3 ff ff       	callq  400cd0 <close@plt>
  402971:	0f b6 03             	movzbl (%rbx),%eax
  402974:	83 e8 4f             	sub    $0x4f,%eax
  402977:	75 18                	jne    402991 <submitr+0x6bd>
  402979:	0f b6 53 01          	movzbl 0x1(%rbx),%edx
  40297d:	83 ea 4b             	sub    $0x4b,%edx
  402980:	75 11                	jne    402993 <submitr+0x6bf>
  402982:	0f b6 53 02          	movzbl 0x2(%rbx),%edx
  402986:	83 ea 0a             	sub    $0xa,%edx
  402989:	75 08                	jne    402993 <submitr+0x6bf>
  40298b:	0f b6 53 03          	movzbl 0x3(%rbx),%edx
  40298f:	eb 02                	jmp    402993 <submitr+0x6bf>
  402991:	89 c2                	mov    %eax,%edx
  402993:	85 d2                	test   %edx,%edx
  402995:	74 30                	je     4029c7 <submitr+0x6f3>
  402997:	bf 40 35 40 00       	mov    $0x403540,%edi
  40299c:	b9 05 00 00 00       	mov    $0x5,%ecx
  4029a1:	48 89 de             	mov    %rbx,%rsi
  4029a4:	f3 a6                	repz cmpsb %es:(%rdi),%ds:(%rsi)
  4029a6:	0f 97 c1             	seta   %cl
  4029a9:	0f 92 c2             	setb   %dl
  4029ac:	38 d1                	cmp    %dl,%cl
  4029ae:	74 1e                	je     4029ce <submitr+0x6fa>
  4029b0:	85 c0                	test   %eax,%eax
  4029b2:	75 0d                	jne    4029c1 <submitr+0x6ed>
  4029b4:	0f b6 43 01          	movzbl 0x1(%rbx),%eax
  4029b8:	83 e8 4b             	sub    $0x4b,%eax
  4029bb:	75 04                	jne    4029c1 <submitr+0x6ed>
  4029bd:	0f b6 43 02          	movzbl 0x2(%rbx),%eax
  4029c1:	85 c0                	test   %eax,%eax
  4029c3:	75 10                	jne    4029d5 <submitr+0x701>
  4029c5:	eb 13                	jmp    4029da <submitr+0x706>
  4029c7:	b8 00 00 00 00       	mov    $0x0,%eax
  4029cc:	eb 0c                	jmp    4029da <submitr+0x706>
  4029ce:	b8 00 00 00 00       	mov    $0x0,%eax
  4029d3:	eb 05                	jmp    4029da <submitr+0x706>
  4029d5:	b8 ff ff ff ff       	mov    $0xffffffff,%eax
  4029da:	48 8b 9c 24 58 a0 00 	mov    0xa058(%rsp),%rbx
  4029e1:	00 
  4029e2:	64 48 33 1c 25 28 00 	xor    %fs:0x28,%rbx
  4029e9:	00 00 
  4029eb:	74 05                	je     4029f2 <submitr+0x71e>
  4029ed:	e8 9e e2 ff ff       	callq  400c90 <__stack_chk_fail@plt>
  4029f2:	48 81 c4 68 a0 00 00 	add    $0xa068,%rsp
  4029f9:	5b                   	pop    %rbx
  4029fa:	5d                   	pop    %rbp
  4029fb:	41 5c                	pop    %r12
  4029fd:	41 5d                	pop    %r13
  4029ff:	41 5e                	pop    %r14
  402a01:	41 5f                	pop    %r15
  402a03:	c3                   	retq   

0000000000402a04 <init_timeout>:
  402a04:	53                   	push   %rbx
  402a05:	89 fb                	mov    %edi,%ebx
  402a07:	85 ff                	test   %edi,%edi
  402a09:	74 1f                	je     402a2a <init_timeout+0x26>
  402a0b:	85 ff                	test   %edi,%edi
  402a0d:	79 05                	jns    402a14 <init_timeout+0x10>
  402a0f:	bb 00 00 00 00       	mov    $0x0,%ebx
  402a14:	be 32 20 40 00       	mov    $0x402032,%esi
  402a19:	bf 0e 00 00 00       	mov    $0xe,%edi
  402a1e:	e8 dd e2 ff ff       	callq  400d00 <signal@plt>
  402a23:	89 df                	mov    %ebx,%edi
  402a25:	e8 96 e2 ff ff       	callq  400cc0 <alarm@plt>
  402a2a:	5b                   	pop    %rbx
  402a2b:	c3                   	retq   

0000000000402a2c <init_driver>:
  402a2c:	55                   	push   %rbp
  402a2d:	53                   	push   %rbx
  402a2e:	48 83 ec 28          	sub    $0x28,%rsp
  402a32:	48 89 fd             	mov    %rdi,%rbp
  402a35:	64 48 8b 04 25 28 00 	mov    %fs:0x28,%rax
  402a3c:	00 00 
  402a3e:	48 89 44 24 18       	mov    %rax,0x18(%rsp)
  402a43:	31 c0                	xor    %eax,%eax
  402a45:	be 01 00 00 00       	mov    $0x1,%esi
  402a4a:	bf 0d 00 00 00       	mov    $0xd,%edi
  402a4f:	e8 ac e2 ff ff       	callq  400d00 <signal@plt>
  402a54:	be 01 00 00 00       	mov    $0x1,%esi
  402a59:	bf 1d 00 00 00       	mov    $0x1d,%edi
  402a5e:	e8 9d e2 ff ff       	callq  400d00 <signal@plt>
  402a63:	be 01 00 00 00       	mov    $0x1,%esi
  402a68:	bf 1d 00 00 00       	mov    $0x1d,%edi
  402a6d:	e8 8e e2 ff ff       	callq  400d00 <signal@plt>
  402a72:	ba 00 00 00 00       	mov    $0x0,%edx
  402a77:	be 01 00 00 00       	mov    $0x1,%esi
  402a7c:	bf 02 00 00 00       	mov    $0x2,%edi
  402a81:	e8 aa e3 ff ff       	callq  400e30 <socket@plt>
  402a86:	89 c3                	mov    %eax,%ebx
  402a88:	85 c0                	test   %eax,%eax
  402a8a:	79 4f                	jns    402adb <init_driver+0xaf>
  402a8c:	48 b8 45 72 72 6f 72 	movabs $0x43203a726f727245,%rax
  402a93:	3a 20 43 
  402a96:	48 89 45 00          	mov    %rax,0x0(%rbp)
  402a9a:	48 b8 6c 69 65 6e 74 	movabs $0x6e7520746e65696c,%rax
  402aa1:	20 75 6e 
  402aa4:	48 89 45 08          	mov    %rax,0x8(%rbp)
  402aa8:	48 b8 61 62 6c 65 20 	movabs $0x206f7420656c6261,%rax
  402aaf:	74 6f 20 
  402ab2:	48 89 45 10          	mov    %rax,0x10(%rbp)
  402ab6:	48 b8 63 72 65 61 74 	movabs $0x7320657461657263,%rax
  402abd:	65 20 73 
  402ac0:	48 89 45 18          	mov    %rax,0x18(%rbp)
  402ac4:	c7 45 20 6f 63 6b 65 	movl   $0x656b636f,0x20(%rbp)
  402acb:	66 c7 45 24 74 00    	movw   $0x74,0x24(%rbp)
  402ad1:	b8 ff ff ff ff       	mov    $0xffffffff,%eax
  402ad6:	e9 28 01 00 00       	jmpq   402c03 <init_driver+0x1d7>
  402adb:	bf 45 35 40 00       	mov    $0x403545,%edi
  402ae0:	e8 2b e2 ff ff       	callq  400d10 <gethostbyname@plt>
  402ae5:	48 85 c0             	test   %rax,%rax
  402ae8:	75 68                	jne    402b52 <init_driver+0x126>
  402aea:	48 b8 45 72 72 6f 72 	movabs $0x44203a726f727245,%rax
  402af1:	3a 20 44 
  402af4:	48 89 45 00          	mov    %rax,0x0(%rbp)
  402af8:	48 b8 4e 53 20 69 73 	movabs $0x6e7520736920534e,%rax
  402aff:	20 75 6e 
  402b02:	48 89 45 08          	mov    %rax,0x8(%rbp)
  402b06:	48 b8 61 62 6c 65 20 	movabs $0x206f7420656c6261,%rax
  402b0d:	74 6f 20 
  402b10:	48 89 45 10          	mov    %rax,0x10(%rbp)
  402b14:	48 b8 72 65 73 6f 6c 	movabs $0x2065766c6f736572,%rax
  402b1b:	76 65 20 
  402b1e:	48 89 45 18          	mov    %rax,0x18(%rbp)
  402b22:	48 b8 73 65 72 76 65 	movabs $0x6120726576726573,%rax
  402b29:	72 20 61 
  402b2c:	48 89 45 20          	mov    %rax,0x20(%rbp)
  402b30:	c7 45 28 64 64 72 65 	movl   $0x65726464,0x28(%rbp)
  402b37:	66 c7 45 2c 73 73    	movw   $0x7373,0x2c(%rbp)
  402b3d:	c6 45 2e 00          	movb   $0x0,0x2e(%rbp)
  402b41:	89 df                	mov    %ebx,%edi
  402b43:	e8 88 e1 ff ff       	callq  400cd0 <close@plt>
  402b48:	b8 ff ff ff ff       	mov    $0xffffffff,%eax
  402b4d:	e9 b1 00 00 00       	jmpq   402c03 <init_driver+0x1d7>
  402b52:	48 c7 04 24 00 00 00 	movq   $0x0,(%rsp)
  402b59:	00 
  402b5a:	48 c7 44 24 08 00 00 	movq   $0x0,0x8(%rsp)
  402b61:	00 00 
  402b63:	66 c7 04 24 02 00    	movw   $0x2,(%rsp)
  402b69:	48 63 50 14          	movslq 0x14(%rax),%rdx
  402b6d:	48 8b 40 18          	mov    0x18(%rax),%rax
  402b71:	48 8b 30             	mov    (%rax),%rsi
  402b74:	48 8d 7c 24 04       	lea    0x4(%rsp),%rdi
  402b79:	b9 0c 00 00 00       	mov    $0xc,%ecx
  402b7e:	e8 9d e1 ff ff       	callq  400d20 <__memmove_chk@plt>
  402b83:	66 c7 44 24 02 27 17 	movw   $0x1727,0x2(%rsp)
  402b8a:	ba 10 00 00 00       	mov    $0x10,%edx
  402b8f:	48 89 e6             	mov    %rsp,%rsi
  402b92:	89 df                	mov    %ebx,%edi
  402b94:	e8 67 e2 ff ff       	callq  400e00 <connect@plt>
  402b99:	85 c0                	test   %eax,%eax
  402b9b:	79 50                	jns    402bed <init_driver+0x1c1>
  402b9d:	48 b8 45 72 72 6f 72 	movabs $0x55203a726f727245,%rax
  402ba4:	3a 20 55 
  402ba7:	48 89 45 00          	mov    %rax,0x0(%rbp)
  402bab:	48 b8 6e 61 62 6c 65 	movabs $0x6f7420656c62616e,%rax
  402bb2:	20 74 6f 
  402bb5:	48 89 45 08          	mov    %rax,0x8(%rbp)
  402bb9:	48 b8 20 63 6f 6e 6e 	movabs $0x7463656e6e6f6320,%rax
  402bc0:	65 63 74 
  402bc3:	48 89 45 10          	mov    %rax,0x10(%rbp)
  402bc7:	48 b8 20 74 6f 20 73 	movabs $0x76726573206f7420,%rax
  402bce:	65 72 76 
  402bd1:	48 89 45 18          	mov    %rax,0x18(%rbp)
  402bd5:	66 c7 45 20 65 72    	movw   $0x7265,0x20(%rbp)
  402bdb:	c6 45 22 00          	movb   $0x0,0x22(%rbp)
  402bdf:	89 df                	mov    %ebx,%edi
  402be1:	e8 ea e0 ff ff       	callq  400cd0 <close@plt>
  402be6:	b8 ff ff ff ff       	mov    $0xffffffff,%eax
  402beb:	eb 16                	jmp    402c03 <init_driver+0x1d7>
  402bed:	89 df                	mov    %ebx,%edi
  402bef:	e8 dc e0 ff ff       	callq  400cd0 <close@plt>
  402bf4:	66 c7 45 00 4f 4b    	movw   $0x4b4f,0x0(%rbp)
  402bfa:	c6 45 02 00          	movb   $0x0,0x2(%rbp)
  402bfe:	b8 00 00 00 00       	mov    $0x0,%eax
  402c03:	48 8b 4c 24 18       	mov    0x18(%rsp),%rcx
  402c08:	64 48 33 0c 25 28 00 	xor    %fs:0x28,%rcx
  402c0f:	00 00 
  402c11:	74 05                	je     402c18 <init_driver+0x1ec>
  402c13:	e8 78 e0 ff ff       	callq  400c90 <__stack_chk_fail@plt>
  402c18:	48 83 c4 28          	add    $0x28,%rsp
  402c1c:	5b                   	pop    %rbx
  402c1d:	5d                   	pop    %rbp
  402c1e:	c3                   	retq   

0000000000402c1f <driver_post>:
  402c1f:	53                   	push   %rbx
  402c20:	48 83 ec 10          	sub    $0x10,%rsp
  402c24:	4c 89 cb             	mov    %r9,%rbx
  402c27:	45 85 c0             	test   %r8d,%r8d
  402c2a:	74 27                	je     402c53 <driver_post+0x34>
  402c2c:	48 89 ca             	mov    %rcx,%rdx
  402c2f:	be 54 35 40 00       	mov    $0x403554,%esi
  402c34:	bf 01 00 00 00       	mov    $0x1,%edi
  402c39:	b8 00 00 00 00       	mov    $0x0,%eax
  402c3e:	e8 5d e1 ff ff       	callq  400da0 <__printf_chk@plt>
  402c43:	66 c7 03 4f 4b       	movw   $0x4b4f,(%rbx)
  402c48:	c6 43 02 00          	movb   $0x0,0x2(%rbx)
  402c4c:	b8 00 00 00 00       	mov    $0x0,%eax
  402c51:	eb 39                	jmp    402c8c <driver_post+0x6d>
  402c53:	48 85 ff             	test   %rdi,%rdi
  402c56:	74 26                	je     402c7e <driver_post+0x5f>
  402c58:	80 3f 00             	cmpb   $0x0,(%rdi)
  402c5b:	74 21                	je     402c7e <driver_post+0x5f>
  402c5d:	4c 89 0c 24          	mov    %r9,(%rsp)
  402c61:	49 89 c9             	mov    %rcx,%r9
  402c64:	49 89 d0             	mov    %rdx,%r8
  402c67:	48 89 f9             	mov    %rdi,%rcx
  402c6a:	48 89 f2             	mov    %rsi,%rdx
  402c6d:	be 17 27 00 00       	mov    $0x2717,%esi
  402c72:	bf 45 35 40 00       	mov    $0x403545,%edi
  402c77:	e8 58 f6 ff ff       	callq  4022d4 <submitr>
  402c7c:	eb 0e                	jmp    402c8c <driver_post+0x6d>
  402c7e:	66 c7 03 4f 4b       	movw   $0x4b4f,(%rbx)
  402c83:	c6 43 02 00          	movb   $0x0,0x2(%rbx)
  402c87:	b8 00 00 00 00       	mov    $0x0,%eax
  402c8c:	48 83 c4 10          	add    $0x10,%rsp
  402c90:	5b                   	pop    %rbx
  402c91:	c3                   	retq   
  402c92:	90                   	nop
  402c93:	90                   	nop

0000000000402c94 <check>:
  402c94:	89 f8                	mov    %edi,%eax
  402c96:	c1 e8 1c             	shr    $0x1c,%eax
  402c99:	85 c0                	test   %eax,%eax
  402c9b:	74 1d                	je     402cba <check+0x26>
  402c9d:	b9 00 00 00 00       	mov    $0x0,%ecx
  402ca2:	eb 0b                	jmp    402caf <check+0x1b>
  402ca4:	89 f8                	mov    %edi,%eax
  402ca6:	d3 e8                	shr    %cl,%eax
  402ca8:	3c 0a                	cmp    $0xa,%al
  402caa:	74 14                	je     402cc0 <check+0x2c>
  402cac:	83 c1 08             	add    $0x8,%ecx
  402caf:	83 f9 1f             	cmp    $0x1f,%ecx
  402cb2:	7e f0                	jle    402ca4 <check+0x10>
  402cb4:	b8 01 00 00 00       	mov    $0x1,%eax
  402cb9:	c3                   	retq   
  402cba:	b8 00 00 00 00       	mov    $0x0,%eax
  402cbf:	c3                   	retq   
  402cc0:	b8 00 00 00 00       	mov    $0x0,%eax
  402cc5:	c3                   	retq   

0000000000402cc6 <gencookie>:
  402cc6:	53                   	push   %rbx
  402cc7:	83 c7 01             	add    $0x1,%edi
  402cca:	e8 71 df ff ff       	callq  400c40 <srandom@plt>
  402ccf:	e8 8c e0 ff ff       	callq  400d60 <random@plt>
  402cd4:	89 c3                	mov    %eax,%ebx
  402cd6:	89 c7                	mov    %eax,%edi
  402cd8:	e8 b7 ff ff ff       	callq  402c94 <check>
  402cdd:	85 c0                	test   %eax,%eax
  402cdf:	74 ee                	je     402ccf <gencookie+0x9>
  402ce1:	89 d8                	mov    %ebx,%eax
  402ce3:	5b                   	pop    %rbx
  402ce4:	c3                   	retq   
  402ce5:	90                   	nop
  402ce6:	90                   	nop
  402ce7:	90                   	nop
  402ce8:	90                   	nop
  402ce9:	90                   	nop
  402cea:	90                   	nop
  402ceb:	90                   	nop
  402cec:	90                   	nop
  402ced:	90                   	nop
  402cee:	90                   	nop
  402cef:	90                   	nop

0000000000402cf0 <__libc_csu_init>:
  402cf0:	48 89 6c 24 d8       	mov    %rbp,-0x28(%rsp)
  402cf5:	4c 89 64 24 e0       	mov    %r12,-0x20(%rsp)
  402cfa:	48 8d 2d ff 10 20 00 	lea    0x2010ff(%rip),%rbp        # 603e00 <__do_global_dtors_aux_fini_array_entry>
  402d01:	4c 8d 25 f0 10 20 00 	lea    0x2010f0(%rip),%r12        # 603df8 <__frame_dummy_init_array_entry>
  402d08:	4c 89 6c 24 e8       	mov    %r13,-0x18(%rsp)
  402d0d:	4c 89 74 24 f0       	mov    %r14,-0x10(%rsp)
  402d12:	4c 89 7c 24 f8       	mov    %r15,-0x8(%rsp)
  402d17:	48 89 5c 24 d0       	mov    %rbx,-0x30(%rsp)
  402d1c:	48 83 ec 38          	sub    $0x38,%rsp
  402d20:	4c 29 e5             	sub    %r12,%rbp
  402d23:	41 89 fd             	mov    %edi,%r13d
  402d26:	49 89 f6             	mov    %rsi,%r14
  402d29:	48 c1 fd 03          	sar    $0x3,%rbp
  402d2d:	49 89 d7             	mov    %rdx,%r15
  402d30:	e8 d3 de ff ff       	callq  400c08 <_init>
  402d35:	48 85 ed             	test   %rbp,%rbp
  402d38:	74 1c                	je     402d56 <__libc_csu_init+0x66>
  402d3a:	31 db                	xor    %ebx,%ebx
  402d3c:	0f 1f 40 00          	nopl   0x0(%rax)
  402d40:	4c 89 fa             	mov    %r15,%rdx
  402d43:	4c 89 f6             	mov    %r14,%rsi
  402d46:	44 89 ef             	mov    %r13d,%edi
  402d49:	41 ff 14 dc          	callq  *(%r12,%rbx,8)
  402d4d:	48 83 c3 01          	add    $0x1,%rbx
  402d51:	48 39 eb             	cmp    %rbp,%rbx
  402d54:	75 ea                	jne    402d40 <__libc_csu_init+0x50>
  402d56:	48 8b 5c 24 08       	mov    0x8(%rsp),%rbx
  402d5b:	48 8b 6c 24 10       	mov    0x10(%rsp),%rbp
  402d60:	4c 8b 64 24 18       	mov    0x18(%rsp),%r12
  402d65:	4c 8b 6c 24 20       	mov    0x20(%rsp),%r13
  402d6a:	4c 8b 74 24 28       	mov    0x28(%rsp),%r14
  402d6f:	4c 8b 7c 24 30       	mov    0x30(%rsp),%r15
  402d74:	48 83 c4 38          	add    $0x38,%rsp
  402d78:	c3                   	retq   
  402d79:	0f 1f 80 00 00 00 00 	nopl   0x0(%rax)

0000000000402d80 <__libc_csu_fini>:
  402d80:	f3 c3                	repz retq 
  402d82:	90                   	nop
  402d83:	90                   	nop

Disassembly of section .fini:

0000000000402d84 <_fini>:
  402d84:	48 83 ec 08          	sub    $0x8,%rsp
  402d88:	48 83 c4 08          	add    $0x8,%rsp
  402d8c:	c3                   	retq   
