
rtarget:     file format elf64-x86-64


Disassembly of section .init:

0000000000400c08 <_init>:
  400c08:	48 83 ec 08          	sub    $0x8,%rsp
  400c0c:	e8 5b 02 00 00       	callq  400e6c <call_gmon_start>
  400c11:	48 83 c4 08          	add    $0x8,%rsp
  400c15:	c3                   	retq   

Disassembly of section .plt:

0000000000400c20 <.plt>:
  400c20:	ff 35 ca 43 20 00    	pushq  0x2043ca(%rip)        # 604ff0 <_GLOBAL_OFFSET_TABLE_+0x8>
  400c26:	ff 25 cc 43 20 00    	jmpq   *0x2043cc(%rip)        # 604ff8 <_GLOBAL_OFFSET_TABLE_+0x10>
  400c2c:	0f 1f 40 00          	nopl   0x0(%rax)

0000000000400c30 <__errno_location@plt>:
  400c30:	ff 25 ca 43 20 00    	jmpq   *0x2043ca(%rip)        # 605000 <__errno_location@GLIBC_2.2.5>
  400c36:	68 00 00 00 00       	pushq  $0x0
  400c3b:	e9 e0 ff ff ff       	jmpq   400c20 <.plt>

0000000000400c40 <srandom@plt>:
  400c40:	ff 25 c2 43 20 00    	jmpq   *0x2043c2(%rip)        # 605008 <srandom@GLIBC_2.2.5>
  400c46:	68 01 00 00 00       	pushq  $0x1
  400c4b:	e9 d0 ff ff ff       	jmpq   400c20 <.plt>

0000000000400c50 <strncmp@plt>:
  400c50:	ff 25 ba 43 20 00    	jmpq   *0x2043ba(%rip)        # 605010 <strncmp@GLIBC_2.2.5>
  400c56:	68 02 00 00 00       	pushq  $0x2
  400c5b:	e9 c0 ff ff ff       	jmpq   400c20 <.plt>

0000000000400c60 <strcpy@plt>:
  400c60:	ff 25 b2 43 20 00    	jmpq   *0x2043b2(%rip)        # 605018 <strcpy@GLIBC_2.2.5>
  400c66:	68 03 00 00 00       	pushq  $0x3
  400c6b:	e9 b0 ff ff ff       	jmpq   400c20 <.plt>

0000000000400c70 <puts@plt>:
  400c70:	ff 25 aa 43 20 00    	jmpq   *0x2043aa(%rip)        # 605020 <puts@GLIBC_2.2.5>
  400c76:	68 04 00 00 00       	pushq  $0x4
  400c7b:	e9 a0 ff ff ff       	jmpq   400c20 <.plt>

0000000000400c80 <write@plt>:
  400c80:	ff 25 a2 43 20 00    	jmpq   *0x2043a2(%rip)        # 605028 <write@GLIBC_2.2.5>
  400c86:	68 05 00 00 00       	pushq  $0x5
  400c8b:	e9 90 ff ff ff       	jmpq   400c20 <.plt>

0000000000400c90 <__stack_chk_fail@plt>:
  400c90:	ff 25 9a 43 20 00    	jmpq   *0x20439a(%rip)        # 605030 <__stack_chk_fail@GLIBC_2.4>
  400c96:	68 06 00 00 00       	pushq  $0x6
  400c9b:	e9 80 ff ff ff       	jmpq   400c20 <.plt>

0000000000400ca0 <mmap@plt>:
  400ca0:	ff 25 92 43 20 00    	jmpq   *0x204392(%rip)        # 605038 <mmap@GLIBC_2.2.5>
  400ca6:	68 07 00 00 00       	pushq  $0x7
  400cab:	e9 70 ff ff ff       	jmpq   400c20 <.plt>

0000000000400cb0 <memset@plt>:
  400cb0:	ff 25 8a 43 20 00    	jmpq   *0x20438a(%rip)        # 605040 <memset@GLIBC_2.2.5>
  400cb6:	68 08 00 00 00       	pushq  $0x8
  400cbb:	e9 60 ff ff ff       	jmpq   400c20 <.plt>

0000000000400cc0 <alarm@plt>:
  400cc0:	ff 25 82 43 20 00    	jmpq   *0x204382(%rip)        # 605048 <alarm@GLIBC_2.2.5>
  400cc6:	68 09 00 00 00       	pushq  $0x9
  400ccb:	e9 50 ff ff ff       	jmpq   400c20 <.plt>

0000000000400cd0 <close@plt>:
  400cd0:	ff 25 7a 43 20 00    	jmpq   *0x20437a(%rip)        # 605050 <close@GLIBC_2.2.5>
  400cd6:	68 0a 00 00 00       	pushq  $0xa
  400cdb:	e9 40 ff ff ff       	jmpq   400c20 <.plt>

0000000000400ce0 <read@plt>:
  400ce0:	ff 25 72 43 20 00    	jmpq   *0x204372(%rip)        # 605058 <read@GLIBC_2.2.5>
  400ce6:	68 0b 00 00 00       	pushq  $0xb
  400ceb:	e9 30 ff ff ff       	jmpq   400c20 <.plt>

0000000000400cf0 <__libc_start_main@plt>:
  400cf0:	ff 25 6a 43 20 00    	jmpq   *0x20436a(%rip)        # 605060 <__libc_start_main@GLIBC_2.2.5>
  400cf6:	68 0c 00 00 00       	pushq  $0xc
  400cfb:	e9 20 ff ff ff       	jmpq   400c20 <.plt>

0000000000400d00 <signal@plt>:
  400d00:	ff 25 62 43 20 00    	jmpq   *0x204362(%rip)        # 605068 <signal@GLIBC_2.2.5>
  400d06:	68 0d 00 00 00       	pushq  $0xd
  400d0b:	e9 10 ff ff ff       	jmpq   400c20 <.plt>

0000000000400d10 <gethostbyname@plt>:
  400d10:	ff 25 5a 43 20 00    	jmpq   *0x20435a(%rip)        # 605070 <gethostbyname@GLIBC_2.2.5>
  400d16:	68 0e 00 00 00       	pushq  $0xe
  400d1b:	e9 00 ff ff ff       	jmpq   400c20 <.plt>

0000000000400d20 <__memmove_chk@plt>:
  400d20:	ff 25 52 43 20 00    	jmpq   *0x204352(%rip)        # 605078 <__memmove_chk@GLIBC_2.3.4>
  400d26:	68 0f 00 00 00       	pushq  $0xf
  400d2b:	e9 f0 fe ff ff       	jmpq   400c20 <.plt>

0000000000400d30 <strtol@plt>:
  400d30:	ff 25 4a 43 20 00    	jmpq   *0x20434a(%rip)        # 605080 <strtol@GLIBC_2.2.5>
  400d36:	68 10 00 00 00       	pushq  $0x10
  400d3b:	e9 e0 fe ff ff       	jmpq   400c20 <.plt>

0000000000400d40 <memcpy@plt>:
  400d40:	ff 25 42 43 20 00    	jmpq   *0x204342(%rip)        # 605088 <memcpy@GLIBC_2.14>
  400d46:	68 11 00 00 00       	pushq  $0x11
  400d4b:	e9 d0 fe ff ff       	jmpq   400c20 <.plt>

0000000000400d50 <time@plt>:
  400d50:	ff 25 3a 43 20 00    	jmpq   *0x20433a(%rip)        # 605090 <time@GLIBC_2.2.5>
  400d56:	68 12 00 00 00       	pushq  $0x12
  400d5b:	e9 c0 fe ff ff       	jmpq   400c20 <.plt>

0000000000400d60 <random@plt>:
  400d60:	ff 25 32 43 20 00    	jmpq   *0x204332(%rip)        # 605098 <random@GLIBC_2.2.5>
  400d66:	68 13 00 00 00       	pushq  $0x13
  400d6b:	e9 b0 fe ff ff       	jmpq   400c20 <.plt>

0000000000400d70 <_IO_getc@plt>:
  400d70:	ff 25 2a 43 20 00    	jmpq   *0x20432a(%rip)        # 6050a0 <_IO_getc@GLIBC_2.2.5>
  400d76:	68 14 00 00 00       	pushq  $0x14
  400d7b:	e9 a0 fe ff ff       	jmpq   400c20 <.plt>

0000000000400d80 <__isoc99_sscanf@plt>:
  400d80:	ff 25 22 43 20 00    	jmpq   *0x204322(%rip)        # 6050a8 <__isoc99_sscanf@GLIBC_2.7>
  400d86:	68 15 00 00 00       	pushq  $0x15
  400d8b:	e9 90 fe ff ff       	jmpq   400c20 <.plt>

0000000000400d90 <munmap@plt>:
  400d90:	ff 25 1a 43 20 00    	jmpq   *0x20431a(%rip)        # 6050b0 <munmap@GLIBC_2.2.5>
  400d96:	68 16 00 00 00       	pushq  $0x16
  400d9b:	e9 80 fe ff ff       	jmpq   400c20 <.plt>

0000000000400da0 <__printf_chk@plt>:
  400da0:	ff 25 12 43 20 00    	jmpq   *0x204312(%rip)        # 6050b8 <__printf_chk@GLIBC_2.3.4>
  400da6:	68 17 00 00 00       	pushq  $0x17
  400dab:	e9 70 fe ff ff       	jmpq   400c20 <.plt>

0000000000400db0 <fopen@plt>:
  400db0:	ff 25 0a 43 20 00    	jmpq   *0x20430a(%rip)        # 6050c0 <fopen@GLIBC_2.2.5>
  400db6:	68 18 00 00 00       	pushq  $0x18
  400dbb:	e9 60 fe ff ff       	jmpq   400c20 <.plt>

0000000000400dc0 <getopt@plt>:
  400dc0:	ff 25 02 43 20 00    	jmpq   *0x204302(%rip)        # 6050c8 <getopt@GLIBC_2.2.5>
  400dc6:	68 19 00 00 00       	pushq  $0x19
  400dcb:	e9 50 fe ff ff       	jmpq   400c20 <.plt>

0000000000400dd0 <strtoul@plt>:
  400dd0:	ff 25 fa 42 20 00    	jmpq   *0x2042fa(%rip)        # 6050d0 <strtoul@GLIBC_2.2.5>
  400dd6:	68 1a 00 00 00       	pushq  $0x1a
  400ddb:	e9 40 fe ff ff       	jmpq   400c20 <.plt>

0000000000400de0 <gethostname@plt>:
  400de0:	ff 25 f2 42 20 00    	jmpq   *0x2042f2(%rip)        # 6050d8 <gethostname@GLIBC_2.2.5>
  400de6:	68 1b 00 00 00       	pushq  $0x1b
  400deb:	e9 30 fe ff ff       	jmpq   400c20 <.plt>

0000000000400df0 <exit@plt>:
  400df0:	ff 25 ea 42 20 00    	jmpq   *0x2042ea(%rip)        # 6050e0 <exit@GLIBC_2.2.5>
  400df6:	68 1c 00 00 00       	pushq  $0x1c
  400dfb:	e9 20 fe ff ff       	jmpq   400c20 <.plt>

0000000000400e00 <connect@plt>:
  400e00:	ff 25 e2 42 20 00    	jmpq   *0x2042e2(%rip)        # 6050e8 <connect@GLIBC_2.2.5>
  400e06:	68 1d 00 00 00       	pushq  $0x1d
  400e0b:	e9 10 fe ff ff       	jmpq   400c20 <.plt>

0000000000400e10 <__fprintf_chk@plt>:
  400e10:	ff 25 da 42 20 00    	jmpq   *0x2042da(%rip)        # 6050f0 <__fprintf_chk@GLIBC_2.3.4>
  400e16:	68 1e 00 00 00       	pushq  $0x1e
  400e1b:	e9 00 fe ff ff       	jmpq   400c20 <.plt>

0000000000400e20 <__sprintf_chk@plt>:
  400e20:	ff 25 d2 42 20 00    	jmpq   *0x2042d2(%rip)        # 6050f8 <__sprintf_chk@GLIBC_2.3.4>
  400e26:	68 1f 00 00 00       	pushq  $0x1f
  400e2b:	e9 f0 fd ff ff       	jmpq   400c20 <.plt>

0000000000400e30 <socket@plt>:
  400e30:	ff 25 ca 42 20 00    	jmpq   *0x2042ca(%rip)        # 605100 <socket@GLIBC_2.2.5>
  400e36:	68 20 00 00 00       	pushq  $0x20
  400e3b:	e9 e0 fd ff ff       	jmpq   400c20 <.plt>

Disassembly of section .text:

0000000000400e40 <_start>:
  400e40:	31 ed                	xor    %ebp,%ebp
  400e42:	49 89 d1             	mov    %rdx,%r9
  400e45:	5e                   	pop    %rsi
  400e46:	48 89 e2             	mov    %rsp,%rdx
  400e49:	48 83 e4 f0          	and    $0xfffffffffffffff0,%rsp
  400e4d:	50                   	push   %rax
  400e4e:	54                   	push   %rsp
  400e4f:	49 c7 c0 b0 2e 40 00 	mov    $0x402eb0,%r8
  400e56:	48 c7 c1 20 2e 40 00 	mov    $0x402e20,%rcx
  400e5d:	48 c7 c7 05 11 40 00 	mov    $0x401105,%rdi
  400e64:	e8 87 fe ff ff       	callq  400cf0 <__libc_start_main@plt>
  400e69:	f4                   	hlt    
  400e6a:	90                   	nop
  400e6b:	90                   	nop

0000000000400e6c <call_gmon_start>:
  400e6c:	48 83 ec 08          	sub    $0x8,%rsp
  400e70:	48 8b 05 69 41 20 00 	mov    0x204169(%rip),%rax        # 604fe0 <__gmon_start__>
  400e77:	48 85 c0             	test   %rax,%rax
  400e7a:	74 02                	je     400e7e <call_gmon_start+0x12>
  400e7c:	ff d0                	callq  *%rax
  400e7e:	48 83 c4 08          	add    $0x8,%rsp
  400e82:	c3                   	retq   
  400e83:	90                   	nop
  400e84:	90                   	nop
  400e85:	90                   	nop
  400e86:	90                   	nop
  400e87:	90                   	nop
  400e88:	90                   	nop
  400e89:	90                   	nop
  400e8a:	90                   	nop
  400e8b:	90                   	nop
  400e8c:	90                   	nop
  400e8d:	90                   	nop
  400e8e:	90                   	nop
  400e8f:	90                   	nop

0000000000400e90 <deregister_tm_clones>:
  400e90:	b8 97 54 60 00       	mov    $0x605497,%eax
  400e95:	55                   	push   %rbp
  400e96:	48 2d 90 54 60 00    	sub    $0x605490,%rax
  400e9c:	48 83 f8 0e          	cmp    $0xe,%rax
  400ea0:	48 89 e5             	mov    %rsp,%rbp
  400ea3:	77 02                	ja     400ea7 <deregister_tm_clones+0x17>
  400ea5:	5d                   	pop    %rbp
  400ea6:	c3                   	retq   
  400ea7:	b8 00 00 00 00       	mov    $0x0,%eax
  400eac:	48 85 c0             	test   %rax,%rax
  400eaf:	74 f4                	je     400ea5 <deregister_tm_clones+0x15>
  400eb1:	5d                   	pop    %rbp
  400eb2:	bf 90 54 60 00       	mov    $0x605490,%edi
  400eb7:	ff e0                	jmpq   *%rax
  400eb9:	0f 1f 80 00 00 00 00 	nopl   0x0(%rax)

0000000000400ec0 <register_tm_clones>:
  400ec0:	b8 90 54 60 00       	mov    $0x605490,%eax
  400ec5:	55                   	push   %rbp
  400ec6:	48 2d 90 54 60 00    	sub    $0x605490,%rax
  400ecc:	48 c1 f8 03          	sar    $0x3,%rax
  400ed0:	48 89 e5             	mov    %rsp,%rbp
  400ed3:	48 89 c2             	mov    %rax,%rdx
  400ed6:	48 c1 ea 3f          	shr    $0x3f,%rdx
  400eda:	48 01 d0             	add    %rdx,%rax
  400edd:	48 d1 f8             	sar    %rax
  400ee0:	75 02                	jne    400ee4 <register_tm_clones+0x24>
  400ee2:	5d                   	pop    %rbp
  400ee3:	c3                   	retq   
  400ee4:	ba 00 00 00 00       	mov    $0x0,%edx
  400ee9:	48 85 d2             	test   %rdx,%rdx
  400eec:	74 f4                	je     400ee2 <register_tm_clones+0x22>
  400eee:	5d                   	pop    %rbp
  400eef:	48 89 c6             	mov    %rax,%rsi
  400ef2:	bf 90 54 60 00       	mov    $0x605490,%edi
  400ef7:	ff e2                	jmpq   *%rdx
  400ef9:	0f 1f 80 00 00 00 00 	nopl   0x0(%rax)

0000000000400f00 <__do_global_dtors_aux>:
  400f00:	80 3d b1 45 20 00 00 	cmpb   $0x0,0x2045b1(%rip)        # 6054b8 <completed.6952>
  400f07:	75 11                	jne    400f1a <__do_global_dtors_aux+0x1a>
  400f09:	55                   	push   %rbp
  400f0a:	48 89 e5             	mov    %rsp,%rbp
  400f0d:	e8 7e ff ff ff       	callq  400e90 <deregister_tm_clones>
  400f12:	5d                   	pop    %rbp
  400f13:	c6 05 9e 45 20 00 01 	movb   $0x1,0x20459e(%rip)        # 6054b8 <completed.6952>
  400f1a:	f3 c3                	repz retq 
  400f1c:	0f 1f 40 00          	nopl   0x0(%rax)

0000000000400f20 <frame_dummy>:
  400f20:	48 83 3d e0 3e 20 00 	cmpq   $0x0,0x203ee0(%rip)        # 604e08 <__JCR_END__>
  400f27:	00 
  400f28:	74 1e                	je     400f48 <frame_dummy+0x28>
  400f2a:	b8 00 00 00 00       	mov    $0x0,%eax
  400f2f:	48 85 c0             	test   %rax,%rax
  400f32:	74 14                	je     400f48 <frame_dummy+0x28>
  400f34:	55                   	push   %rbp
  400f35:	bf 08 4e 60 00       	mov    $0x604e08,%edi
  400f3a:	48 89 e5             	mov    %rsp,%rbp
  400f3d:	ff d0                	callq  *%rax
  400f3f:	5d                   	pop    %rbp
  400f40:	e9 7b ff ff ff       	jmpq   400ec0 <register_tm_clones>
  400f45:	0f 1f 00             	nopl   (%rax)
  400f48:	e9 73 ff ff ff       	jmpq   400ec0 <register_tm_clones>
  400f4d:	90                   	nop
  400f4e:	90                   	nop
  400f4f:	90                   	nop

0000000000400f50 <usage>:
  400f50:	48 83 ec 08          	sub    $0x8,%rsp
  400f54:	48 89 fa             	mov    %rdi,%rdx
  400f57:	83 3d 8a 45 20 00 00 	cmpl   $0x0,0x20458a(%rip)        # 6054e8 <is_checker>
  400f5e:	74 3e                	je     400f9e <usage+0x4e>
  400f60:	be c8 2e 40 00       	mov    $0x402ec8,%esi
  400f65:	bf 01 00 00 00       	mov    $0x1,%edi
  400f6a:	b8 00 00 00 00       	mov    $0x0,%eax
  400f6f:	e8 2c fe ff ff       	callq  400da0 <__printf_chk@plt>
  400f74:	bf 00 2f 40 00       	mov    $0x402f00,%edi
  400f79:	e8 f2 fc ff ff       	callq  400c70 <puts@plt>
  400f7e:	bf 38 30 40 00       	mov    $0x403038,%edi
  400f83:	e8 e8 fc ff ff       	callq  400c70 <puts@plt>
  400f88:	bf 28 2f 40 00       	mov    $0x402f28,%edi
  400f8d:	e8 de fc ff ff       	callq  400c70 <puts@plt>
  400f92:	bf 52 30 40 00       	mov    $0x403052,%edi
  400f97:	e8 d4 fc ff ff       	callq  400c70 <puts@plt>
  400f9c:	eb 32                	jmp    400fd0 <usage+0x80>
  400f9e:	be 6e 30 40 00       	mov    $0x40306e,%esi
  400fa3:	bf 01 00 00 00       	mov    $0x1,%edi
  400fa8:	b8 00 00 00 00       	mov    $0x0,%eax
  400fad:	e8 ee fd ff ff       	callq  400da0 <__printf_chk@plt>
  400fb2:	bf 50 2f 40 00       	mov    $0x402f50,%edi
  400fb7:	e8 b4 fc ff ff       	callq  400c70 <puts@plt>
  400fbc:	bf 78 2f 40 00       	mov    $0x402f78,%edi
  400fc1:	e8 aa fc ff ff       	callq  400c70 <puts@plt>
  400fc6:	bf 8c 30 40 00       	mov    $0x40308c,%edi
  400fcb:	e8 a0 fc ff ff       	callq  400c70 <puts@plt>
  400fd0:	bf 00 00 00 00       	mov    $0x0,%edi
  400fd5:	e8 16 fe ff ff       	callq  400df0 <exit@plt>

0000000000400fda <initialize_target>:
  400fda:	55                   	push   %rbp
  400fdb:	53                   	push   %rbx
  400fdc:	48 81 ec 18 21 00 00 	sub    $0x2118,%rsp
  400fe3:	89 f5                	mov    %esi,%ebp
  400fe5:	64 48 8b 04 25 28 00 	mov    %fs:0x28,%rax
  400fec:	00 00 
  400fee:	48 89 84 24 08 21 00 	mov    %rax,0x2108(%rsp)
  400ff5:	00 
  400ff6:	31 c0                	xor    %eax,%eax
  400ff8:	89 3d da 44 20 00    	mov    %edi,0x2044da(%rip)        # 6054d8 <check_level>
  400ffe:	8b 3d 44 41 20 00    	mov    0x204144(%rip),%edi        # 605148 <target_id>
  401004:	e8 ed 1d 00 00       	callq  402df6 <gencookie>
  401009:	89 05 d5 44 20 00    	mov    %eax,0x2044d5(%rip)        # 6054e4 <cookie>
  40100f:	89 c7                	mov    %eax,%edi
  401011:	e8 e0 1d 00 00       	callq  402df6 <gencookie>
  401016:	89 05 c4 44 20 00    	mov    %eax,0x2044c4(%rip)        # 6054e0 <authkey>
  40101c:	8b 05 26 41 20 00    	mov    0x204126(%rip),%eax        # 605148 <target_id>
  401022:	8d 78 01             	lea    0x1(%rax),%edi
  401025:	e8 16 fc ff ff       	callq  400c40 <srandom@plt>
  40102a:	e8 31 fd ff ff       	callq  400d60 <random@plt>
  40102f:	89 c7                	mov    %eax,%edi
  401031:	e8 aa 02 00 00       	callq  4012e0 <scramble>
  401036:	89 c3                	mov    %eax,%ebx
  401038:	85 ed                	test   %ebp,%ebp
  40103a:	74 18                	je     401054 <initialize_target+0x7a>
  40103c:	bf 00 00 00 00       	mov    $0x0,%edi
  401041:	e8 0a fd ff ff       	callq  400d50 <time@plt>
  401046:	89 c7                	mov    %eax,%edi
  401048:	e8 f3 fb ff ff       	callq  400c40 <srandom@plt>
  40104d:	e8 0e fd ff ff       	callq  400d60 <random@plt>
  401052:	eb 05                	jmp    401059 <initialize_target+0x7f>
  401054:	b8 00 00 00 00       	mov    $0x0,%eax
  401059:	01 c3                	add    %eax,%ebx
  40105b:	0f b7 db             	movzwl %bx,%ebx
  40105e:	8d 04 dd 00 01 00 00 	lea    0x100(,%rbx,8),%eax
  401065:	89 c0                	mov    %eax,%eax
  401067:	48 89 05 12 44 20 00 	mov    %rax,0x204412(%rip)        # 605480 <buf_offset>
  40106e:	c6 05 93 50 20 00 72 	movb   $0x72,0x205093(%rip)        # 606108 <target_prefix>
  401075:	83 3d 0c 44 20 00 00 	cmpl   $0x0,0x20440c(%rip)        # 605488 <notify>
  40107c:	74 65                	je     4010e3 <initialize_target+0x109>
  40107e:	83 3d 63 44 20 00 00 	cmpl   $0x0,0x204463(%rip)        # 6054e8 <is_checker>
  401085:	75 5c                	jne    4010e3 <initialize_target+0x109>
  401087:	be 00 01 00 00       	mov    $0x100,%esi
  40108c:	48 89 e7             	mov    %rsp,%rdi
  40108f:	e8 4c fd ff ff       	callq  400de0 <gethostname@plt>
  401094:	85 c0                	test   %eax,%eax
  401096:	74 14                	je     4010ac <initialize_target+0xd2>
  401098:	bf a8 2f 40 00       	mov    $0x402fa8,%edi
  40109d:	e8 ce fb ff ff       	callq  400c70 <puts@plt>
  4010a2:	bf 08 00 00 00       	mov    $0x8,%edi
  4010a7:	e8 44 fd ff ff       	callq  400df0 <exit@plt>
  4010ac:	48 8d bc 24 00 01 00 	lea    0x100(%rsp),%rdi
  4010b3:	00 
  4010b4:	e8 a3 1a 00 00       	callq  402b5c <init_driver>
  4010b9:	85 c0                	test   %eax,%eax
  4010bb:	79 26                	jns    4010e3 <initialize_target+0x109>
  4010bd:	48 8d 94 24 00 01 00 	lea    0x100(%rsp),%rdx
  4010c4:	00 
  4010c5:	be e0 2f 40 00       	mov    $0x402fe0,%esi
  4010ca:	bf 01 00 00 00       	mov    $0x1,%edi
  4010cf:	b8 00 00 00 00       	mov    $0x0,%eax
  4010d4:	e8 c7 fc ff ff       	callq  400da0 <__printf_chk@plt>
  4010d9:	bf 08 00 00 00       	mov    $0x8,%edi
  4010de:	e8 0d fd ff ff       	callq  400df0 <exit@plt>
  4010e3:	48 8b 84 24 08 21 00 	mov    0x2108(%rsp),%rax
  4010ea:	00 
  4010eb:	64 48 33 04 25 28 00 	xor    %fs:0x28,%rax
  4010f2:	00 00 
  4010f4:	74 05                	je     4010fb <initialize_target+0x121>
  4010f6:	e8 95 fb ff ff       	callq  400c90 <__stack_chk_fail@plt>
  4010fb:	48 81 c4 18 21 00 00 	add    $0x2118,%rsp
  401102:	5b                   	pop    %rbx
  401103:	5d                   	pop    %rbp
  401104:	c3                   	retq   

0000000000401105 <main>:
  401105:	41 56                	push   %r14
  401107:	41 55                	push   %r13
  401109:	41 54                	push   %r12
  40110b:	55                   	push   %rbp
  40110c:	53                   	push   %rbx
  40110d:	41 89 fc             	mov    %edi,%r12d
  401110:	48 89 f3             	mov    %rsi,%rbx
  401113:	be fe 1e 40 00       	mov    $0x401efe,%esi
  401118:	bf 0b 00 00 00       	mov    $0xb,%edi
  40111d:	e8 de fb ff ff       	callq  400d00 <signal@plt>
  401122:	be b0 1e 40 00       	mov    $0x401eb0,%esi
  401127:	bf 07 00 00 00       	mov    $0x7,%edi
  40112c:	e8 cf fb ff ff       	callq  400d00 <signal@plt>
  401131:	be 4c 1f 40 00       	mov    $0x401f4c,%esi
  401136:	bf 04 00 00 00       	mov    $0x4,%edi
  40113b:	e8 c0 fb ff ff       	callq  400d00 <signal@plt>
  401140:	83 3d a1 43 20 00 00 	cmpl   $0x0,0x2043a1(%rip)        # 6054e8 <is_checker>
  401147:	74 20                	je     401169 <main+0x64>
  401149:	be 9a 1f 40 00       	mov    $0x401f9a,%esi
  40114e:	bf 0e 00 00 00       	mov    $0xe,%edi
  401153:	e8 a8 fb ff ff       	callq  400d00 <signal@plt>
  401158:	bf 05 00 00 00       	mov    $0x5,%edi
  40115d:	e8 5e fb ff ff       	callq  400cc0 <alarm@plt>
  401162:	bd aa 30 40 00       	mov    $0x4030aa,%ebp
  401167:	eb 05                	jmp    40116e <main+0x69>
  401169:	bd a5 30 40 00       	mov    $0x4030a5,%ebp
  40116e:	48 8b 05 2b 43 20 00 	mov    0x20432b(%rip),%rax        # 6054a0 <stdin@@GLIBC_2.2.5>
  401175:	48 89 05 54 43 20 00 	mov    %rax,0x204354(%rip)        # 6054d0 <infile>
  40117c:	41 bd 00 00 00 00    	mov    $0x0,%r13d
  401182:	41 be 00 00 00 00    	mov    $0x0,%r14d
  401188:	e9 c6 00 00 00       	jmpq   401253 <main+0x14e>
  40118d:	83 e8 61             	sub    $0x61,%eax
  401190:	3c 10                	cmp    $0x10,%al
  401192:	0f 87 9c 00 00 00    	ja     401234 <main+0x12f>
  401198:	0f b6 c0             	movzbl %al,%eax
  40119b:	ff 24 c5 f0 30 40 00 	jmpq   *0x4030f0(,%rax,8)
  4011a2:	48 8b 3b             	mov    (%rbx),%rdi
  4011a5:	e8 a6 fd ff ff       	callq  400f50 <usage>
  4011aa:	be 75 33 40 00       	mov    $0x403375,%esi
  4011af:	48 8b 3d f2 42 20 00 	mov    0x2042f2(%rip),%rdi        # 6054a8 <optarg@@GLIBC_2.2.5>
  4011b6:	e8 f5 fb ff ff       	callq  400db0 <fopen@plt>
  4011bb:	48 89 05 0e 43 20 00 	mov    %rax,0x20430e(%rip)        # 6054d0 <infile>
  4011c2:	48 85 c0             	test   %rax,%rax
  4011c5:	0f 85 88 00 00 00    	jne    401253 <main+0x14e>
  4011cb:	48 8b 0d d6 42 20 00 	mov    0x2042d6(%rip),%rcx        # 6054a8 <optarg@@GLIBC_2.2.5>
  4011d2:	ba b2 30 40 00       	mov    $0x4030b2,%edx
  4011d7:	be 01 00 00 00       	mov    $0x1,%esi
  4011dc:	48 8b 3d cd 42 20 00 	mov    0x2042cd(%rip),%rdi        # 6054b0 <stderr@@GLIBC_2.2.5>
  4011e3:	e8 28 fc ff ff       	callq  400e10 <__fprintf_chk@plt>
  4011e8:	b8 01 00 00 00       	mov    $0x1,%eax
  4011ed:	e9 e4 00 00 00       	jmpq   4012d6 <main+0x1d1>
  4011f2:	ba 10 00 00 00       	mov    $0x10,%edx
  4011f7:	be 00 00 00 00       	mov    $0x0,%esi
  4011fc:	48 8b 3d a5 42 20 00 	mov    0x2042a5(%rip),%rdi        # 6054a8 <optarg@@GLIBC_2.2.5>
  401203:	e8 c8 fb ff ff       	callq  400dd0 <strtoul@plt>
  401208:	41 89 c6             	mov    %eax,%r14d
  40120b:	eb 46                	jmp    401253 <main+0x14e>
  40120d:	ba 0a 00 00 00       	mov    $0xa,%edx
  401212:	be 00 00 00 00       	mov    $0x0,%esi
  401217:	48 8b 3d 8a 42 20 00 	mov    0x20428a(%rip),%rdi        # 6054a8 <optarg@@GLIBC_2.2.5>
  40121e:	e8 0d fb ff ff       	callq  400d30 <strtol@plt>
  401223:	41 89 c5             	mov    %eax,%r13d
  401226:	eb 2b                	jmp    401253 <main+0x14e>
  401228:	c7 05 56 42 20 00 00 	movl   $0x0,0x204256(%rip)        # 605488 <notify>
  40122f:	00 00 00 
  401232:	eb 1f                	jmp    401253 <main+0x14e>
  401234:	0f be d2             	movsbl %dl,%edx
  401237:	be cf 30 40 00       	mov    $0x4030cf,%esi
  40123c:	bf 01 00 00 00       	mov    $0x1,%edi
  401241:	b8 00 00 00 00       	mov    $0x0,%eax
  401246:	e8 55 fb ff ff       	callq  400da0 <__printf_chk@plt>
  40124b:	48 8b 3b             	mov    (%rbx),%rdi
  40124e:	e8 fd fc ff ff       	callq  400f50 <usage>
  401253:	48 89 ea             	mov    %rbp,%rdx
  401256:	48 89 de             	mov    %rbx,%rsi
  401259:	44 89 e7             	mov    %r12d,%edi
  40125c:	e8 5f fb ff ff       	callq  400dc0 <getopt@plt>
  401261:	89 c2                	mov    %eax,%edx
  401263:	3c ff                	cmp    $0xff,%al
  401265:	0f 85 22 ff ff ff    	jne    40118d <main+0x88>
  40126b:	be 01 00 00 00       	mov    $0x1,%esi
  401270:	44 89 ef             	mov    %r13d,%edi
  401273:	e8 62 fd ff ff       	callq  400fda <initialize_target>
  401278:	83 3d 69 42 20 00 00 	cmpl   $0x0,0x204269(%rip)        # 6054e8 <is_checker>
  40127f:	74 2a                	je     4012ab <main+0x1a6>
  401281:	44 3b 35 58 42 20 00 	cmp    0x204258(%rip),%r14d        # 6054e0 <authkey>
  401288:	74 21                	je     4012ab <main+0x1a6>
  40128a:	44 89 f2             	mov    %r14d,%edx
  40128d:	be 08 30 40 00       	mov    $0x403008,%esi
  401292:	bf 01 00 00 00       	mov    $0x1,%edi
  401297:	b8 00 00 00 00       	mov    $0x0,%eax
  40129c:	e8 ff fa ff ff       	callq  400da0 <__printf_chk@plt>
  4012a1:	b8 00 00 00 00       	mov    $0x0,%eax
  4012a6:	e8 90 08 00 00       	callq  401b3b <check_fail>
  4012ab:	8b 15 33 42 20 00    	mov    0x204233(%rip),%edx        # 6054e4 <cookie>
  4012b1:	be e2 30 40 00       	mov    $0x4030e2,%esi
  4012b6:	bf 01 00 00 00       	mov    $0x1,%edi
  4012bb:	b8 00 00 00 00       	mov    $0x0,%eax
  4012c0:	e8 db fa ff ff       	callq  400da0 <__printf_chk@plt>
  4012c5:	48 8b 3d b4 41 20 00 	mov    0x2041b4(%rip),%rdi        # 605480 <buf_offset>
  4012cc:	e8 1c 0d 00 00       	callq  401fed <launch>
  4012d1:	b8 00 00 00 00       	mov    $0x0,%eax
  4012d6:	5b                   	pop    %rbx
  4012d7:	5d                   	pop    %rbp
  4012d8:	41 5c                	pop    %r12
  4012da:	41 5d                	pop    %r13
  4012dc:	41 5e                	pop    %r14
  4012de:	c3                   	retq   
  4012df:	90                   	nop

00000000004012e0 <scramble>:
  4012e0:	b8 00 00 00 00       	mov    $0x0,%eax
  4012e5:	eb 11                	jmp    4012f8 <scramble+0x18>
  4012e7:	69 c8 55 e0 00 00    	imul   $0xe055,%eax,%ecx
  4012ed:	01 f9                	add    %edi,%ecx
  4012ef:	89 c2                	mov    %eax,%edx
  4012f1:	89 4c 94 c8          	mov    %ecx,-0x38(%rsp,%rdx,4)
  4012f5:	83 c0 01             	add    $0x1,%eax
  4012f8:	83 f8 09             	cmp    $0x9,%eax
  4012fb:	76 ea                	jbe    4012e7 <scramble+0x7>
  4012fd:	8b 44 24 e4          	mov    -0x1c(%rsp),%eax
  401301:	69 c0 50 12 00 00    	imul   $0x1250,%eax,%eax
  401307:	89 44 24 e4          	mov    %eax,-0x1c(%rsp)
  40130b:	8b 44 24 c8          	mov    -0x38(%rsp),%eax
  40130f:	69 c0 21 0b 00 00    	imul   $0xb21,%eax,%eax
  401315:	89 44 24 c8          	mov    %eax,-0x38(%rsp)
  401319:	8b 44 24 d4          	mov    -0x2c(%rsp),%eax
  40131d:	69 c0 89 2e 00 00    	imul   $0x2e89,%eax,%eax
  401323:	89 44 24 d4          	mov    %eax,-0x2c(%rsp)
  401327:	8b 44 24 d8          	mov    -0x28(%rsp),%eax
  40132b:	69 c0 bc 2b 00 00    	imul   $0x2bbc,%eax,%eax
  401331:	89 44 24 d8          	mov    %eax,-0x28(%rsp)
  401335:	8b 44 24 c8          	mov    -0x38(%rsp),%eax
  401339:	69 c0 b6 db 00 00    	imul   $0xdbb6,%eax,%eax
  40133f:	89 44 24 c8          	mov    %eax,-0x38(%rsp)
  401343:	8b 44 24 e4          	mov    -0x1c(%rsp),%eax
  401347:	69 c0 84 e0 00 00    	imul   $0xe084,%eax,%eax
  40134d:	89 44 24 e4          	mov    %eax,-0x1c(%rsp)
  401351:	8b 44 24 e4          	mov    -0x1c(%rsp),%eax
  401355:	69 c0 48 3c 00 00    	imul   $0x3c48,%eax,%eax
  40135b:	89 44 24 e4          	mov    %eax,-0x1c(%rsp)
  40135f:	8b 44 24 e8          	mov    -0x18(%rsp),%eax
  401363:	69 c0 d3 05 00 00    	imul   $0x5d3,%eax,%eax
  401369:	89 44 24 e8          	mov    %eax,-0x18(%rsp)
  40136d:	8b 44 24 e0          	mov    -0x20(%rsp),%eax
  401371:	69 c0 b8 e2 00 00    	imul   $0xe2b8,%eax,%eax
  401377:	89 44 24 e0          	mov    %eax,-0x20(%rsp)
  40137b:	8b 44 24 dc          	mov    -0x24(%rsp),%eax
  40137f:	69 c0 ef 54 00 00    	imul   $0x54ef,%eax,%eax
  401385:	89 44 24 dc          	mov    %eax,-0x24(%rsp)
  401389:	8b 44 24 d8          	mov    -0x28(%rsp),%eax
  40138d:	69 c0 29 ed 00 00    	imul   $0xed29,%eax,%eax
  401393:	89 44 24 d8          	mov    %eax,-0x28(%rsp)
  401397:	8b 44 24 e0          	mov    -0x20(%rsp),%eax
  40139b:	69 c0 36 83 00 00    	imul   $0x8336,%eax,%eax
  4013a1:	89 44 24 e0          	mov    %eax,-0x20(%rsp)
  4013a5:	8b 44 24 e4          	mov    -0x1c(%rsp),%eax
  4013a9:	69 c0 c1 87 00 00    	imul   $0x87c1,%eax,%eax
  4013af:	89 44 24 e4          	mov    %eax,-0x1c(%rsp)
  4013b3:	8b 44 24 e8          	mov    -0x18(%rsp),%eax
  4013b7:	69 c0 f3 2f 00 00    	imul   $0x2ff3,%eax,%eax
  4013bd:	89 44 24 e8          	mov    %eax,-0x18(%rsp)
  4013c1:	8b 44 24 dc          	mov    -0x24(%rsp),%eax
  4013c5:	69 c0 c0 e8 00 00    	imul   $0xe8c0,%eax,%eax
  4013cb:	89 44 24 dc          	mov    %eax,-0x24(%rsp)
  4013cf:	8b 44 24 d8          	mov    -0x28(%rsp),%eax
  4013d3:	69 c0 6b 6a 00 00    	imul   $0x6a6b,%eax,%eax
  4013d9:	89 44 24 d8          	mov    %eax,-0x28(%rsp)
  4013dd:	8b 44 24 dc          	mov    -0x24(%rsp),%eax
  4013e1:	69 c0 98 7b 00 00    	imul   $0x7b98,%eax,%eax
  4013e7:	89 44 24 dc          	mov    %eax,-0x24(%rsp)
  4013eb:	8b 44 24 e8          	mov    -0x18(%rsp),%eax
  4013ef:	69 c0 7e 5e 00 00    	imul   $0x5e7e,%eax,%eax
  4013f5:	89 44 24 e8          	mov    %eax,-0x18(%rsp)
  4013f9:	8b 44 24 e8          	mov    -0x18(%rsp),%eax
  4013fd:	69 c0 e6 80 00 00    	imul   $0x80e6,%eax,%eax
  401403:	89 44 24 e8          	mov    %eax,-0x18(%rsp)
  401407:	8b 44 24 ec          	mov    -0x14(%rsp),%eax
  40140b:	69 c0 92 c1 00 00    	imul   $0xc192,%eax,%eax
  401411:	89 44 24 ec          	mov    %eax,-0x14(%rsp)
  401415:	8b 44 24 d8          	mov    -0x28(%rsp),%eax
  401419:	69 c0 6c d2 00 00    	imul   $0xd26c,%eax,%eax
  40141f:	89 44 24 d8          	mov    %eax,-0x28(%rsp)
  401423:	8b 44 24 cc          	mov    -0x34(%rsp),%eax
  401427:	69 c0 4a 65 00 00    	imul   $0x654a,%eax,%eax
  40142d:	89 44 24 cc          	mov    %eax,-0x34(%rsp)
  401431:	8b 44 24 d0          	mov    -0x30(%rsp),%eax
  401435:	69 c0 19 79 00 00    	imul   $0x7919,%eax,%eax
  40143b:	89 44 24 d0          	mov    %eax,-0x30(%rsp)
  40143f:	8b 44 24 e0          	mov    -0x20(%rsp),%eax
  401443:	69 c0 49 87 00 00    	imul   $0x8749,%eax,%eax
  401449:	89 44 24 e0          	mov    %eax,-0x20(%rsp)
  40144d:	8b 44 24 d0          	mov    -0x30(%rsp),%eax
  401451:	69 c0 b6 f5 00 00    	imul   $0xf5b6,%eax,%eax
  401457:	89 44 24 d0          	mov    %eax,-0x30(%rsp)
  40145b:	8b 44 24 d4          	mov    -0x2c(%rsp),%eax
  40145f:	69 c0 2d 56 00 00    	imul   $0x562d,%eax,%eax
  401465:	89 44 24 d4          	mov    %eax,-0x2c(%rsp)
  401469:	8b 44 24 ec          	mov    -0x14(%rsp),%eax
  40146d:	69 c0 87 a4 00 00    	imul   $0xa487,%eax,%eax
  401473:	89 44 24 ec          	mov    %eax,-0x14(%rsp)
  401477:	8b 44 24 c8          	mov    -0x38(%rsp),%eax
  40147b:	69 c0 79 0e 00 00    	imul   $0xe79,%eax,%eax
  401481:	89 44 24 c8          	mov    %eax,-0x38(%rsp)
  401485:	8b 44 24 d4          	mov    -0x2c(%rsp),%eax
  401489:	69 c0 e1 83 00 00    	imul   $0x83e1,%eax,%eax
  40148f:	89 44 24 d4          	mov    %eax,-0x2c(%rsp)
  401493:	8b 44 24 dc          	mov    -0x24(%rsp),%eax
  401497:	69 c0 5e b6 00 00    	imul   $0xb65e,%eax,%eax
  40149d:	89 44 24 dc          	mov    %eax,-0x24(%rsp)
  4014a1:	8b 44 24 e0          	mov    -0x20(%rsp),%eax
  4014a5:	69 c0 48 4d 00 00    	imul   $0x4d48,%eax,%eax
  4014ab:	89 44 24 e0          	mov    %eax,-0x20(%rsp)
  4014af:	8b 44 24 d8          	mov    -0x28(%rsp),%eax
  4014b3:	69 c0 b1 67 00 00    	imul   $0x67b1,%eax,%eax
  4014b9:	89 44 24 d8          	mov    %eax,-0x28(%rsp)
  4014bd:	8b 44 24 d4          	mov    -0x2c(%rsp),%eax
  4014c1:	69 c0 57 96 00 00    	imul   $0x9657,%eax,%eax
  4014c7:	89 44 24 d4          	mov    %eax,-0x2c(%rsp)
  4014cb:	8b 44 24 d4          	mov    -0x2c(%rsp),%eax
  4014cf:	69 c0 02 73 00 00    	imul   $0x7302,%eax,%eax
  4014d5:	89 44 24 d4          	mov    %eax,-0x2c(%rsp)
  4014d9:	8b 44 24 e4          	mov    -0x1c(%rsp),%eax
  4014dd:	69 c0 69 50 00 00    	imul   $0x5069,%eax,%eax
  4014e3:	89 44 24 e4          	mov    %eax,-0x1c(%rsp)
  4014e7:	8b 44 24 d4          	mov    -0x2c(%rsp),%eax
  4014eb:	69 c0 da 73 00 00    	imul   $0x73da,%eax,%eax
  4014f1:	89 44 24 d4          	mov    %eax,-0x2c(%rsp)
  4014f5:	8b 44 24 cc          	mov    -0x34(%rsp),%eax
  4014f9:	69 c0 ab d6 00 00    	imul   $0xd6ab,%eax,%eax
  4014ff:	89 44 24 cc          	mov    %eax,-0x34(%rsp)
  401503:	8b 44 24 e4          	mov    -0x1c(%rsp),%eax
  401507:	69 c0 8a 31 00 00    	imul   $0x318a,%eax,%eax
  40150d:	89 44 24 e4          	mov    %eax,-0x1c(%rsp)
  401511:	8b 44 24 e0          	mov    -0x20(%rsp),%eax
  401515:	69 c0 43 44 00 00    	imul   $0x4443,%eax,%eax
  40151b:	89 44 24 e0          	mov    %eax,-0x20(%rsp)
  40151f:	8b 44 24 dc          	mov    -0x24(%rsp),%eax
  401523:	69 c0 97 ab 00 00    	imul   $0xab97,%eax,%eax
  401529:	89 44 24 dc          	mov    %eax,-0x24(%rsp)
  40152d:	8b 44 24 d8          	mov    -0x28(%rsp),%eax
  401531:	69 c0 0c 95 00 00    	imul   $0x950c,%eax,%eax
  401537:	89 44 24 d8          	mov    %eax,-0x28(%rsp)
  40153b:	8b 44 24 e4          	mov    -0x1c(%rsp),%eax
  40153f:	69 c0 d8 1c 00 00    	imul   $0x1cd8,%eax,%eax
  401545:	89 44 24 e4          	mov    %eax,-0x1c(%rsp)
  401549:	8b 44 24 cc          	mov    -0x34(%rsp),%eax
  40154d:	69 c0 27 db 00 00    	imul   $0xdb27,%eax,%eax
  401553:	89 44 24 cc          	mov    %eax,-0x34(%rsp)
  401557:	8b 44 24 d8          	mov    -0x28(%rsp),%eax
  40155b:	69 c0 dc 65 00 00    	imul   $0x65dc,%eax,%eax
  401561:	89 44 24 d8          	mov    %eax,-0x28(%rsp)
  401565:	8b 44 24 e0          	mov    -0x20(%rsp),%eax
  401569:	69 c0 be 69 00 00    	imul   $0x69be,%eax,%eax
  40156f:	89 44 24 e0          	mov    %eax,-0x20(%rsp)
  401573:	8b 44 24 e8          	mov    -0x18(%rsp),%eax
  401577:	69 c0 a9 cb 00 00    	imul   $0xcba9,%eax,%eax
  40157d:	89 44 24 e8          	mov    %eax,-0x18(%rsp)
  401581:	8b 44 24 c8          	mov    -0x38(%rsp),%eax
  401585:	69 c0 04 3d 00 00    	imul   $0x3d04,%eax,%eax
  40158b:	89 44 24 c8          	mov    %eax,-0x38(%rsp)
  40158f:	8b 44 24 dc          	mov    -0x24(%rsp),%eax
  401593:	69 c0 e7 7f 00 00    	imul   $0x7fe7,%eax,%eax
  401599:	89 44 24 dc          	mov    %eax,-0x24(%rsp)
  40159d:	8b 44 24 ec          	mov    -0x14(%rsp),%eax
  4015a1:	69 c0 89 f9 00 00    	imul   $0xf989,%eax,%eax
  4015a7:	89 44 24 ec          	mov    %eax,-0x14(%rsp)
  4015ab:	8b 44 24 e8          	mov    -0x18(%rsp),%eax
  4015af:	69 c0 99 ea 00 00    	imul   $0xea99,%eax,%eax
  4015b5:	89 44 24 e8          	mov    %eax,-0x18(%rsp)
  4015b9:	8b 44 24 dc          	mov    -0x24(%rsp),%eax
  4015bd:	69 c0 7e 27 00 00    	imul   $0x277e,%eax,%eax
  4015c3:	89 44 24 dc          	mov    %eax,-0x24(%rsp)
  4015c7:	8b 44 24 d0          	mov    -0x30(%rsp),%eax
  4015cb:	69 c0 c8 6c 00 00    	imul   $0x6cc8,%eax,%eax
  4015d1:	89 44 24 d0          	mov    %eax,-0x30(%rsp)
  4015d5:	8b 44 24 e8          	mov    -0x18(%rsp),%eax
  4015d9:	69 c0 98 37 00 00    	imul   $0x3798,%eax,%eax
  4015df:	89 44 24 e8          	mov    %eax,-0x18(%rsp)
  4015e3:	8b 44 24 d4          	mov    -0x2c(%rsp),%eax
  4015e7:	69 c0 ef 4d 00 00    	imul   $0x4def,%eax,%eax
  4015ed:	89 44 24 d4          	mov    %eax,-0x2c(%rsp)
  4015f1:	8b 44 24 d0          	mov    -0x30(%rsp),%eax
  4015f5:	69 c0 26 57 00 00    	imul   $0x5726,%eax,%eax
  4015fb:	89 44 24 d0          	mov    %eax,-0x30(%rsp)
  4015ff:	8b 44 24 dc          	mov    -0x24(%rsp),%eax
  401603:	69 c0 d4 b5 00 00    	imul   $0xb5d4,%eax,%eax
  401609:	89 44 24 dc          	mov    %eax,-0x24(%rsp)
  40160d:	8b 44 24 c8          	mov    -0x38(%rsp),%eax
  401611:	69 c0 4a fb 00 00    	imul   $0xfb4a,%eax,%eax
  401617:	89 44 24 c8          	mov    %eax,-0x38(%rsp)
  40161b:	8b 44 24 d4          	mov    -0x2c(%rsp),%eax
  40161f:	69 c0 c6 25 00 00    	imul   $0x25c6,%eax,%eax
  401625:	89 44 24 d4          	mov    %eax,-0x2c(%rsp)
  401629:	8b 44 24 c8          	mov    -0x38(%rsp),%eax
  40162d:	69 c0 fe fd 00 00    	imul   $0xfdfe,%eax,%eax
  401633:	89 44 24 c8          	mov    %eax,-0x38(%rsp)
  401637:	8b 44 24 c8          	mov    -0x38(%rsp),%eax
  40163b:	69 c0 7a 35 00 00    	imul   $0x357a,%eax,%eax
  401641:	89 44 24 c8          	mov    %eax,-0x38(%rsp)
  401645:	8b 44 24 cc          	mov    -0x34(%rsp),%eax
  401649:	69 c0 dd a7 00 00    	imul   $0xa7dd,%eax,%eax
  40164f:	89 44 24 cc          	mov    %eax,-0x34(%rsp)
  401653:	8b 44 24 d4          	mov    -0x2c(%rsp),%eax
  401657:	69 c0 c3 1e 00 00    	imul   $0x1ec3,%eax,%eax
  40165d:	89 44 24 d4          	mov    %eax,-0x2c(%rsp)
  401661:	8b 44 24 d8          	mov    -0x28(%rsp),%eax
  401665:	69 c0 7e 34 00 00    	imul   $0x347e,%eax,%eax
  40166b:	89 44 24 d8          	mov    %eax,-0x28(%rsp)
  40166f:	8b 44 24 ec          	mov    -0x14(%rsp),%eax
  401673:	69 c0 3d b8 00 00    	imul   $0xb83d,%eax,%eax
  401679:	89 44 24 ec          	mov    %eax,-0x14(%rsp)
  40167d:	8b 44 24 d0          	mov    -0x30(%rsp),%eax
  401681:	69 c0 93 91 00 00    	imul   $0x9193,%eax,%eax
  401687:	89 44 24 d0          	mov    %eax,-0x30(%rsp)
  40168b:	8b 44 24 d8          	mov    -0x28(%rsp),%eax
  40168f:	69 c0 fa 77 00 00    	imul   $0x77fa,%eax,%eax
  401695:	89 44 24 d8          	mov    %eax,-0x28(%rsp)
  401699:	8b 44 24 d8          	mov    -0x28(%rsp),%eax
  40169d:	69 c0 49 01 00 00    	imul   $0x149,%eax,%eax
  4016a3:	89 44 24 d8          	mov    %eax,-0x28(%rsp)
  4016a7:	8b 44 24 e0          	mov    -0x20(%rsp),%eax
  4016ab:	69 c0 3c b7 00 00    	imul   $0xb73c,%eax,%eax
  4016b1:	89 44 24 e0          	mov    %eax,-0x20(%rsp)
  4016b5:	8b 44 24 e4          	mov    -0x1c(%rsp),%eax
  4016b9:	69 c0 14 83 00 00    	imul   $0x8314,%eax,%eax
  4016bf:	89 44 24 e4          	mov    %eax,-0x1c(%rsp)
  4016c3:	8b 44 24 ec          	mov    -0x14(%rsp),%eax
  4016c7:	69 c0 bd b4 00 00    	imul   $0xb4bd,%eax,%eax
  4016cd:	89 44 24 ec          	mov    %eax,-0x14(%rsp)
  4016d1:	8b 44 24 c8          	mov    -0x38(%rsp),%eax
  4016d5:	69 c0 b1 fe 00 00    	imul   $0xfeb1,%eax,%eax
  4016db:	89 44 24 c8          	mov    %eax,-0x38(%rsp)
  4016df:	8b 44 24 ec          	mov    -0x14(%rsp),%eax
  4016e3:	69 c0 6e c6 00 00    	imul   $0xc66e,%eax,%eax
  4016e9:	89 44 24 ec          	mov    %eax,-0x14(%rsp)
  4016ed:	8b 44 24 e8          	mov    -0x18(%rsp),%eax
  4016f1:	69 c0 3e 3d 00 00    	imul   $0x3d3e,%eax,%eax
  4016f7:	89 44 24 e8          	mov    %eax,-0x18(%rsp)
  4016fb:	8b 44 24 d8          	mov    -0x28(%rsp),%eax
  4016ff:	69 c0 6c d0 00 00    	imul   $0xd06c,%eax,%eax
  401705:	89 44 24 d8          	mov    %eax,-0x28(%rsp)
  401709:	8b 44 24 e0          	mov    -0x20(%rsp),%eax
  40170d:	69 c0 d7 77 00 00    	imul   $0x77d7,%eax,%eax
  401713:	89 44 24 e0          	mov    %eax,-0x20(%rsp)
  401717:	8b 44 24 c8          	mov    -0x38(%rsp),%eax
  40171b:	69 c0 f9 a2 00 00    	imul   $0xa2f9,%eax,%eax
  401721:	89 44 24 c8          	mov    %eax,-0x38(%rsp)
  401725:	8b 44 24 e0          	mov    -0x20(%rsp),%eax
  401729:	69 c0 0a 07 00 00    	imul   $0x70a,%eax,%eax
  40172f:	89 44 24 e0          	mov    %eax,-0x20(%rsp)
  401733:	8b 44 24 d8          	mov    -0x28(%rsp),%eax
  401737:	69 c0 95 04 00 00    	imul   $0x495,%eax,%eax
  40173d:	89 44 24 d8          	mov    %eax,-0x28(%rsp)
  401741:	8b 44 24 e0          	mov    -0x20(%rsp),%eax
  401745:	69 c0 66 60 00 00    	imul   $0x6066,%eax,%eax
  40174b:	89 44 24 e0          	mov    %eax,-0x20(%rsp)
  40174f:	8b 44 24 e4          	mov    -0x1c(%rsp),%eax
  401753:	69 c0 8f 69 00 00    	imul   $0x698f,%eax,%eax
  401759:	89 44 24 e4          	mov    %eax,-0x1c(%rsp)
  40175d:	8b 44 24 e4          	mov    -0x1c(%rsp),%eax
  401761:	69 c0 a8 5f 00 00    	imul   $0x5fa8,%eax,%eax
  401767:	89 44 24 e4          	mov    %eax,-0x1c(%rsp)
  40176b:	8b 44 24 e8          	mov    -0x18(%rsp),%eax
  40176f:	69 c0 0b ab 00 00    	imul   $0xab0b,%eax,%eax
  401775:	89 44 24 e8          	mov    %eax,-0x18(%rsp)
  401779:	8b 44 24 cc          	mov    -0x34(%rsp),%eax
  40177d:	69 c0 4b c6 00 00    	imul   $0xc64b,%eax,%eax
  401783:	89 44 24 cc          	mov    %eax,-0x34(%rsp)
  401787:	8b 44 24 e0          	mov    -0x20(%rsp),%eax
  40178b:	69 c0 d4 99 00 00    	imul   $0x99d4,%eax,%eax
  401791:	89 44 24 e0          	mov    %eax,-0x20(%rsp)
  401795:	ba 00 00 00 00       	mov    $0x0,%edx
  40179a:	b8 00 00 00 00       	mov    $0x0,%eax
  40179f:	eb 0b                	jmp    4017ac <scramble+0x4cc>
  4017a1:	89 d1                	mov    %edx,%ecx
  4017a3:	8b 4c 8c c8          	mov    -0x38(%rsp,%rcx,4),%ecx
  4017a7:	01 c8                	add    %ecx,%eax
  4017a9:	83 c2 01             	add    $0x1,%edx
  4017ac:	83 fa 09             	cmp    $0x9,%edx
  4017af:	76 f0                	jbe    4017a1 <scramble+0x4c1>
  4017b1:	f3 c3                	repz retq 
  4017b3:	90                   	nop

00000000004017b4 <getbuf>:
  4017b4:	48 83 ec 38          	sub    $0x38,%rsp
  4017b8:	48 89 e7             	mov    %rsp,%rdi
  4017bb:	e8 b0 03 00 00       	callq  401b70 <Gets>
  4017c0:	b8 01 00 00 00       	mov    $0x1,%eax
  4017c5:	48 83 c4 38          	add    $0x38,%rsp
  4017c9:	c3                   	retq   
  4017ca:	90                   	nop
  4017cb:	90                   	nop

00000000004017cc <touch1>:
  4017cc:	48 83 ec 08          	sub    $0x8,%rsp
  4017d0:	c7 05 02 3d 20 00 01 	movl   $0x1,0x203d02(%rip)        # 6054dc <vlevel>
  4017d7:	00 00 00 
  4017da:	bf ce 31 40 00       	mov    $0x4031ce,%edi
  4017df:	e8 8c f4 ff ff       	callq  400c70 <puts@plt>
  4017e4:	bf 01 00 00 00       	mov    $0x1,%edi
  4017e9:	e8 d8 05 00 00       	callq  401dc6 <validate>
  4017ee:	bf 00 00 00 00       	mov    $0x0,%edi
  4017f3:	e8 f8 f5 ff ff       	callq  400df0 <exit@plt>

00000000004017f8 <touch2>:
  4017f8:	48 83 ec 08          	sub    $0x8,%rsp
  4017fc:	89 fa                	mov    %edi,%edx
  4017fe:	c7 05 d4 3c 20 00 02 	movl   $0x2,0x203cd4(%rip)        # 6054dc <vlevel>
  401805:	00 00 00 
  401808:	3b 3d d6 3c 20 00    	cmp    0x203cd6(%rip),%edi        # 6054e4 <cookie>
  40180e:	75 20                	jne    401830 <touch2+0x38>
  401810:	be f0 31 40 00       	mov    $0x4031f0,%esi
  401815:	bf 01 00 00 00       	mov    $0x1,%edi
  40181a:	b8 00 00 00 00       	mov    $0x0,%eax
  40181f:	e8 7c f5 ff ff       	callq  400da0 <__printf_chk@plt>
  401824:	bf 02 00 00 00       	mov    $0x2,%edi
  401829:	e8 98 05 00 00       	callq  401dc6 <validate>
  40182e:	eb 1e                	jmp    40184e <touch2+0x56>
  401830:	be 18 32 40 00       	mov    $0x403218,%esi
  401835:	bf 01 00 00 00       	mov    $0x1,%edi
  40183a:	b8 00 00 00 00       	mov    $0x0,%eax
  40183f:	e8 5c f5 ff ff       	callq  400da0 <__printf_chk@plt>
  401844:	bf 02 00 00 00       	mov    $0x2,%edi
  401849:	e8 3a 06 00 00       	callq  401e88 <fail>
  40184e:	bf 00 00 00 00       	mov    $0x0,%edi
  401853:	e8 98 f5 ff ff       	callq  400df0 <exit@plt>

0000000000401858 <hexmatch>:
  401858:	41 54                	push   %r12
  40185a:	55                   	push   %rbp
  40185b:	53                   	push   %rbx
  40185c:	48 83 c4 80          	add    $0xffffffffffffff80,%rsp
  401860:	41 89 fc             	mov    %edi,%r12d
  401863:	48 89 f5             	mov    %rsi,%rbp
  401866:	64 48 8b 04 25 28 00 	mov    %fs:0x28,%rax
  40186d:	00 00 
  40186f:	48 89 44 24 78       	mov    %rax,0x78(%rsp)
  401874:	31 c0                	xor    %eax,%eax
  401876:	e8 e5 f4 ff ff       	callq  400d60 <random@plt>
  40187b:	48 89 c1             	mov    %rax,%rcx
  40187e:	48 ba 0b d7 a3 70 3d 	movabs $0xa3d70a3d70a3d70b,%rdx
  401885:	0a d7 a3 
  401888:	48 f7 ea             	imul   %rdx
  40188b:	48 01 ca             	add    %rcx,%rdx
  40188e:	48 c1 fa 06          	sar    $0x6,%rdx
  401892:	48 89 c8             	mov    %rcx,%rax
  401895:	48 c1 f8 3f          	sar    $0x3f,%rax
  401899:	48 29 c2             	sub    %rax,%rdx
  40189c:	48 8d 04 92          	lea    (%rdx,%rdx,4),%rax
  4018a0:	48 8d 04 80          	lea    (%rax,%rax,4),%rax
  4018a4:	48 c1 e0 02          	shl    $0x2,%rax
  4018a8:	48 29 c1             	sub    %rax,%rcx
  4018ab:	48 8d 1c 0c          	lea    (%rsp,%rcx,1),%rbx
  4018af:	45 89 e0             	mov    %r12d,%r8d
  4018b2:	b9 eb 31 40 00       	mov    $0x4031eb,%ecx
  4018b7:	48 c7 c2 ff ff ff ff 	mov    $0xffffffffffffffff,%rdx
  4018be:	be 01 00 00 00       	mov    $0x1,%esi
  4018c3:	48 89 df             	mov    %rbx,%rdi
  4018c6:	b8 00 00 00 00       	mov    $0x0,%eax
  4018cb:	e8 50 f5 ff ff       	callq  400e20 <__sprintf_chk@plt>
  4018d0:	ba 09 00 00 00       	mov    $0x9,%edx
  4018d5:	48 89 de             	mov    %rbx,%rsi
  4018d8:	48 89 ef             	mov    %rbp,%rdi
  4018db:	e8 70 f3 ff ff       	callq  400c50 <strncmp@plt>
  4018e0:	85 c0                	test   %eax,%eax
  4018e2:	0f 94 c0             	sete   %al
  4018e5:	0f b6 c0             	movzbl %al,%eax
  4018e8:	48 8b 74 24 78       	mov    0x78(%rsp),%rsi
  4018ed:	64 48 33 34 25 28 00 	xor    %fs:0x28,%rsi
  4018f4:	00 00 
  4018f6:	74 05                	je     4018fd <hexmatch+0xa5>
  4018f8:	e8 93 f3 ff ff       	callq  400c90 <__stack_chk_fail@plt>
  4018fd:	48 83 ec 80          	sub    $0xffffffffffffff80,%rsp
  401901:	5b                   	pop    %rbx
  401902:	5d                   	pop    %rbp
  401903:	41 5c                	pop    %r12
  401905:	c3                   	retq   

0000000000401906 <touch3>:
  401906:	53                   	push   %rbx
  401907:	48 89 fb             	mov    %rdi,%rbx
  40190a:	c7 05 c8 3b 20 00 03 	movl   $0x3,0x203bc8(%rip)        # 6054dc <vlevel>
  401911:	00 00 00 
  401914:	48 89 fe             	mov    %rdi,%rsi
  401917:	8b 3d c7 3b 20 00    	mov    0x203bc7(%rip),%edi        # 6054e4 <cookie>
  40191d:	e8 36 ff ff ff       	callq  401858 <hexmatch>
  401922:	85 c0                	test   %eax,%eax
  401924:	74 23                	je     401949 <touch3+0x43>
  401926:	48 89 da             	mov    %rbx,%rdx
  401929:	be 40 32 40 00       	mov    $0x403240,%esi
  40192e:	bf 01 00 00 00       	mov    $0x1,%edi
  401933:	b8 00 00 00 00       	mov    $0x0,%eax
  401938:	e8 63 f4 ff ff       	callq  400da0 <__printf_chk@plt>
  40193d:	bf 03 00 00 00       	mov    $0x3,%edi
  401942:	e8 7f 04 00 00       	callq  401dc6 <validate>
  401947:	eb 21                	jmp    40196a <touch3+0x64>
  401949:	48 89 da             	mov    %rbx,%rdx
  40194c:	be 68 32 40 00       	mov    $0x403268,%esi
  401951:	bf 01 00 00 00       	mov    $0x1,%edi
  401956:	b8 00 00 00 00       	mov    $0x0,%eax
  40195b:	e8 40 f4 ff ff       	callq  400da0 <__printf_chk@plt>
  401960:	bf 03 00 00 00       	mov    $0x3,%edi
  401965:	e8 1e 05 00 00       	callq  401e88 <fail>
  40196a:	bf 00 00 00 00       	mov    $0x0,%edi
  40196f:	e8 7c f4 ff ff       	callq  400df0 <exit@plt>

0000000000401974 <test>:
  401974:	48 83 ec 08          	sub    $0x8,%rsp
  401978:	b8 00 00 00 00       	mov    $0x0,%eax
  40197d:	e8 32 fe ff ff       	callq  4017b4 <getbuf>
  401982:	89 c2                	mov    %eax,%edx
  401984:	be 90 32 40 00       	mov    $0x403290,%esi
  401989:	bf 01 00 00 00       	mov    $0x1,%edi
  40198e:	b8 00 00 00 00       	mov    $0x0,%eax
  401993:	e8 08 f4 ff ff       	callq  400da0 <__printf_chk@plt>
  401998:	48 83 c4 08          	add    $0x8,%rsp
  40199c:	c3                   	retq   
  40199d:	90                   	nop
  40199e:	90                   	nop
  40199f:	90                   	nop

00000000004019a0 <start_farm>:
  4019a0:	b8 01 00 00 00       	mov    $0x1,%eax
  4019a5:	c3                   	retq   

00000000004019a6 <getval_222>:
  4019a6:	b8 48 89 c7 c3       	mov    $0xc3c78948,%eax
  4019ab:	c3                   	retq   

00000000004019ac <setval_212>:
  4019ac:	c7 07 48 89 c7 c3    	movl   $0xc3c78948,(%rdi)
  4019b2:	c3                   	retq   

00000000004019b3 <getval_214>:
  4019b3:	b8 58 91 90 90       	mov    $0x90909158,%eax
  4019b8:	c3                   	retq   

00000000004019b9 <setval_252>:
  4019b9:	c7 07 48 89 c7 91    	movl   $0x91c78948,(%rdi)
  4019bf:	c3                   	retq   

00000000004019c0 <setval_495>:
  4019c0:	c7 07 40 89 c7 c3    	movl   $0xc3c78940,(%rdi)
  4019c6:	c3                   	retq   

00000000004019c7 <getval_153>:
  4019c7:	b8 d8 90 c3 24       	mov    $0x24c390d8,%eax
  4019cc:	c3                   	retq   

00000000004019cd <addval_157>:
  4019cd:	8d 87 ed a5 58 90    	lea    -0x6fa75a13(%rdi),%eax
  4019d3:	c3                   	retq   

00000000004019d4 <setval_451>:
  4019d4:	c7 07 af 9d 58 c3    	movl   $0xc3589daf,(%rdi)
  4019da:	c3                   	retq   

00000000004019db <mid_farm>:
  4019db:	b8 01 00 00 00       	mov    $0x1,%eax
  4019e0:	c3                   	retq   

00000000004019e1 <add_xy>:
  4019e1:	48 8d 04 37          	lea    (%rdi,%rsi,1),%rax
  4019e5:	c3                   	retq   

00000000004019e6 <setval_289>:
  4019e6:	c7 07 99 c1 90 90    	movl   $0x9090c199,(%rdi)
  4019ec:	c3                   	retq   

00000000004019ed <setval_478>:
  4019ed:	c7 07 89 ca c3 e3    	movl   $0xe3c3ca89,(%rdi)
  4019f3:	c3                   	retq   

00000000004019f4 <addval_483>:
  4019f4:	8d 87 81 d6 38 d2    	lea    -0x2dc7297f(%rdi),%eax
  4019fa:	c3                   	retq   

00000000004019fb <addval_178>:
  4019fb:	8d 87 89 c1 08 db    	lea    -0x24f73e77(%rdi),%eax
  401a01:	c3                   	retq   

0000000000401a02 <getval_101>:
  401a02:	b8 ba 48 89 e0       	mov    $0xe08948ba,%eax
  401a07:	c3                   	retq   

0000000000401a08 <addval_216>:
  401a08:	8d 87 89 d6 84 c0    	lea    -0x3f7b2977(%rdi),%eax
  401a0e:	c3                   	retq   

0000000000401a0f <addval_304>:
  401a0f:	8d 87 a9 c1 08 db    	lea    -0x24f73e57(%rdi),%eax
  401a15:	c3                   	retq   

0000000000401a16 <addval_257>:
  401a16:	8d 87 89 c1 60 db    	lea    -0x249f3e77(%rdi),%eax
  401a1c:	c3                   	retq   

0000000000401a1d <getval_326>:
  401a1d:	b8 4d be 89 d6       	mov    $0xd689be4d,%eax
  401a22:	c3                   	retq   

0000000000401a23 <addval_259>:
  401a23:	8d 87 88 ca 90 90    	lea    -0x6f6f3578(%rdi),%eax
  401a29:	c3                   	retq   

0000000000401a2a <setval_413>:
  401a2a:	c7 07 88 ca 84 c9    	movl   $0xc984ca88,(%rdi)
  401a30:	c3                   	retq   

0000000000401a31 <addval_255>:
  401a31:	8d 87 48 89 e0 91    	lea    -0x6e1f76b8(%rdi),%eax
  401a37:	c3                   	retq   

0000000000401a38 <addval_172>:
  401a38:	8d 87 81 c1 38 c9    	lea    -0x36c73e7f(%rdi),%eax
  401a3e:	c3                   	retq   

0000000000401a3f <getval_203>:
  401a3f:	b8 8d c1 90 c3       	mov    $0xc390c18d,%eax
  401a44:	c3                   	retq   

0000000000401a45 <setval_448>:
  401a45:	c7 07 89 ca 92 90    	movl   $0x9092ca89,(%rdi)
  401a4b:	c3                   	retq   

0000000000401a4c <getval_376>:
  401a4c:	b8 e4 c8 89 e0       	mov    $0xe089c8e4,%eax
  401a51:	c3                   	retq   

0000000000401a52 <addval_309>:
  401a52:	8d 87 68 89 e0 c3    	lea    -0x3c1f7698(%rdi),%eax
  401a58:	c3                   	retq   

0000000000401a59 <getval_190>:
  401a59:	b8 89 d6 91 c3       	mov    $0xc391d689,%eax
  401a5e:	c3                   	retq   

0000000000401a5f <setval_455>:
  401a5f:	c7 07 89 d6 18 db    	movl   $0xdb18d689,(%rdi)
  401a65:	c3                   	retq   

0000000000401a66 <getval_486>:
  401a66:	b8 48 8b e0 90       	mov    $0x90e08b48,%eax
  401a6b:	c3                   	retq   

0000000000401a6c <addval_394>:
  401a6c:	8d 87 09 d6 90 c3    	lea    -0x3c6f29f7(%rdi),%eax
  401a72:	c3                   	retq   

0000000000401a73 <setval_273>:
  401a73:	c7 07 2b 48 89 e0    	movl   $0xe089482b,(%rdi)
  401a79:	c3                   	retq   

0000000000401a7a <setval_464>:
  401a7a:	c7 07 89 c1 20 db    	movl   $0xdb20c189,(%rdi)
  401a80:	c3                   	retq   

0000000000401a81 <addval_350>:
  401a81:	8d 87 89 ca 94 d2    	lea    -0x2d6b3577(%rdi),%eax
  401a87:	c3                   	retq   

0000000000401a88 <setval_351>:
  401a88:	c7 07 89 ca 38 c0    	movl   $0xc038ca89,(%rdi)
  401a8e:	c3                   	retq   

0000000000401a8f <addval_296>:
  401a8f:	8d 87 58 89 e0 90    	lea    -0x6f1f76a8(%rdi),%eax
  401a95:	c3                   	retq   

0000000000401a96 <getval_392>:
  401a96:	b8 b6 89 d6 91       	mov    $0x91d689b6,%eax
  401a9b:	c3                   	retq   

0000000000401a9c <getval_125>:
  401a9c:	b8 2d 4c 89 e0       	mov    $0xe0894c2d,%eax
  401aa1:	c3                   	retq   

0000000000401aa2 <getval_362>:
  401aa2:	b8 c9 ca 20 d2       	mov    $0xd220cac9,%eax
  401aa7:	c3                   	retq   

0000000000401aa8 <getval_151>:
  401aa8:	b8 8d ca 20 c9       	mov    $0xc920ca8d,%eax
  401aad:	c3                   	retq   

0000000000401aae <getval_410>:
  401aae:	b8 89 d6 a4 c0       	mov    $0xc0a4d689,%eax
  401ab3:	c3                   	retq   

0000000000401ab4 <addval_417>:
  401ab4:	8d 87 89 c1 78 d2    	lea    -0x2d873e77(%rdi),%eax
  401aba:	c3                   	retq   

0000000000401abb <end_farm>:
  401abb:	b8 01 00 00 00       	mov    $0x1,%eax
  401ac0:	c3                   	retq   
  401ac1:	90                   	nop
  401ac2:	90                   	nop
  401ac3:	90                   	nop
  401ac4:	90                   	nop
  401ac5:	90                   	nop
  401ac6:	90                   	nop
  401ac7:	90                   	nop
  401ac8:	90                   	nop
  401ac9:	90                   	nop
  401aca:	90                   	nop
  401acb:	90                   	nop
  401acc:	90                   	nop
  401acd:	90                   	nop
  401ace:	90                   	nop
  401acf:	90                   	nop

0000000000401ad0 <save_char>:
  401ad0:	8b 05 2e 46 20 00    	mov    0x20462e(%rip),%eax        # 606104 <gets_cnt>
  401ad6:	3d ff 03 00 00       	cmp    $0x3ff,%eax
  401adb:	7f 49                	jg     401b26 <save_char+0x56>
  401add:	8d 14 40             	lea    (%rax,%rax,2),%edx
  401ae0:	89 f9                	mov    %edi,%ecx
  401ae2:	c0 e9 04             	shr    $0x4,%cl
  401ae5:	83 e1 0f             	and    $0xf,%ecx
  401ae8:	0f b6 b1 b0 35 40 00 	movzbl 0x4035b0(%rcx),%esi
  401aef:	48 63 ca             	movslq %edx,%rcx
  401af2:	40 88 b1 00 55 60 00 	mov    %sil,0x605500(%rcx)
  401af9:	8d 4a 01             	lea    0x1(%rdx),%ecx
  401afc:	83 e7 0f             	and    $0xf,%edi
  401aff:	0f b6 b7 b0 35 40 00 	movzbl 0x4035b0(%rdi),%esi
  401b06:	48 63 c9             	movslq %ecx,%rcx
  401b09:	40 88 b1 00 55 60 00 	mov    %sil,0x605500(%rcx)
  401b10:	83 c2 02             	add    $0x2,%edx
  401b13:	48 63 d2             	movslq %edx,%rdx
  401b16:	c6 82 00 55 60 00 20 	movb   $0x20,0x605500(%rdx)
  401b1d:	83 c0 01             	add    $0x1,%eax
  401b20:	89 05 de 45 20 00    	mov    %eax,0x2045de(%rip)        # 606104 <gets_cnt>
  401b26:	f3 c3                	repz retq 

0000000000401b28 <save_term>:
  401b28:	8b 05 d6 45 20 00    	mov    0x2045d6(%rip),%eax        # 606104 <gets_cnt>
  401b2e:	8d 04 40             	lea    (%rax,%rax,2),%eax
  401b31:	48 98                	cltq   
  401b33:	c6 80 00 55 60 00 00 	movb   $0x0,0x605500(%rax)
  401b3a:	c3                   	retq   

0000000000401b3b <check_fail>:
  401b3b:	48 83 ec 08          	sub    $0x8,%rsp
  401b3f:	0f be 15 c2 45 20 00 	movsbl 0x2045c2(%rip),%edx        # 606108 <target_prefix>
  401b46:	41 b8 00 55 60 00    	mov    $0x605500,%r8d
  401b4c:	8b 0d 86 39 20 00    	mov    0x203986(%rip),%ecx        # 6054d8 <check_level>
  401b52:	be b3 32 40 00       	mov    $0x4032b3,%esi
  401b57:	bf 01 00 00 00       	mov    $0x1,%edi
  401b5c:	b8 00 00 00 00       	mov    $0x0,%eax
  401b61:	e8 3a f2 ff ff       	callq  400da0 <__printf_chk@plt>
  401b66:	bf 01 00 00 00       	mov    $0x1,%edi
  401b6b:	e8 80 f2 ff ff       	callq  400df0 <exit@plt>

0000000000401b70 <Gets>:
  401b70:	41 54                	push   %r12
  401b72:	55                   	push   %rbp
  401b73:	53                   	push   %rbx
  401b74:	49 89 fc             	mov    %rdi,%r12
  401b77:	c7 05 83 45 20 00 00 	movl   $0x0,0x204583(%rip)        # 606104 <gets_cnt>
  401b7e:	00 00 00 
  401b81:	48 89 fb             	mov    %rdi,%rbx
  401b84:	eb 11                	jmp    401b97 <Gets+0x27>
  401b86:	48 8d 6b 01          	lea    0x1(%rbx),%rbp
  401b8a:	88 03                	mov    %al,(%rbx)
  401b8c:	0f b6 f8             	movzbl %al,%edi
  401b8f:	e8 3c ff ff ff       	callq  401ad0 <save_char>
  401b94:	48 89 eb             	mov    %rbp,%rbx
  401b97:	48 8b 3d 32 39 20 00 	mov    0x203932(%rip),%rdi        # 6054d0 <infile>
  401b9e:	e8 cd f1 ff ff       	callq  400d70 <_IO_getc@plt>
  401ba3:	83 f8 ff             	cmp    $0xffffffff,%eax
  401ba6:	74 05                	je     401bad <Gets+0x3d>
  401ba8:	83 f8 0a             	cmp    $0xa,%eax
  401bab:	75 d9                	jne    401b86 <Gets+0x16>
  401bad:	c6 03 00             	movb   $0x0,(%rbx)
  401bb0:	b8 00 00 00 00       	mov    $0x0,%eax
  401bb5:	e8 6e ff ff ff       	callq  401b28 <save_term>
  401bba:	4c 89 e0             	mov    %r12,%rax
  401bbd:	5b                   	pop    %rbx
  401bbe:	5d                   	pop    %rbp
  401bbf:	41 5c                	pop    %r12
  401bc1:	c3                   	retq   

0000000000401bc2 <notify_server>:
  401bc2:	53                   	push   %rbx
  401bc3:	48 81 ec 30 40 00 00 	sub    $0x4030,%rsp
  401bca:	64 48 8b 04 25 28 00 	mov    %fs:0x28,%rax
  401bd1:	00 00 
  401bd3:	48 89 84 24 28 40 00 	mov    %rax,0x4028(%rsp)
  401bda:	00 
  401bdb:	31 c0                	xor    %eax,%eax
  401bdd:	83 3d 04 39 20 00 00 	cmpl   $0x0,0x203904(%rip)        # 6054e8 <is_checker>
  401be4:	0f 85 bb 01 00 00    	jne    401da5 <notify_server+0x1e3>
  401bea:	89 fb                	mov    %edi,%ebx
  401bec:	8b 05 12 45 20 00    	mov    0x204512(%rip),%eax        # 606104 <gets_cnt>
  401bf2:	83 c0 64             	add    $0x64,%eax
  401bf5:	3d 00 20 00 00       	cmp    $0x2000,%eax
  401bfa:	7e 1e                	jle    401c1a <notify_server+0x58>
  401bfc:	be e8 33 40 00       	mov    $0x4033e8,%esi
  401c01:	bf 01 00 00 00       	mov    $0x1,%edi
  401c06:	b8 00 00 00 00       	mov    $0x0,%eax
  401c0b:	e8 90 f1 ff ff       	callq  400da0 <__printf_chk@plt>
  401c10:	bf 01 00 00 00       	mov    $0x1,%edi
  401c15:	e8 d6 f1 ff ff       	callq  400df0 <exit@plt>
  401c1a:	0f be 05 e7 44 20 00 	movsbl 0x2044e7(%rip),%eax        # 606108 <target_prefix>
  401c21:	83 3d 60 38 20 00 00 	cmpl   $0x0,0x203860(%rip)        # 605488 <notify>
  401c28:	74 08                	je     401c32 <notify_server+0x70>
  401c2a:	8b 15 b0 38 20 00    	mov    0x2038b0(%rip),%edx        # 6054e0 <authkey>
  401c30:	eb 05                	jmp    401c37 <notify_server+0x75>
  401c32:	ba ff ff ff ff       	mov    $0xffffffff,%edx
  401c37:	85 db                	test   %ebx,%ebx
  401c39:	74 08                	je     401c43 <notify_server+0x81>
  401c3b:	41 b9 c9 32 40 00    	mov    $0x4032c9,%r9d
  401c41:	eb 06                	jmp    401c49 <notify_server+0x87>
  401c43:	41 b9 ce 32 40 00    	mov    $0x4032ce,%r9d
  401c49:	48 c7 44 24 18 00 55 	movq   $0x605500,0x18(%rsp)
  401c50:	60 00 
  401c52:	89 74 24 10          	mov    %esi,0x10(%rsp)
  401c56:	89 44 24 08          	mov    %eax,0x8(%rsp)
  401c5a:	89 14 24             	mov    %edx,(%rsp)
  401c5d:	44 8b 05 e4 34 20 00 	mov    0x2034e4(%rip),%r8d        # 605148 <target_id>
  401c64:	b9 d3 32 40 00       	mov    $0x4032d3,%ecx
  401c69:	ba 00 20 00 00       	mov    $0x2000,%edx
  401c6e:	be 01 00 00 00       	mov    $0x1,%esi
  401c73:	48 8d 7c 24 20       	lea    0x20(%rsp),%rdi
  401c78:	b8 00 00 00 00       	mov    $0x0,%eax
  401c7d:	e8 9e f1 ff ff       	callq  400e20 <__sprintf_chk@plt>
  401c82:	83 3d ff 37 20 00 00 	cmpl   $0x0,0x2037ff(%rip)        # 605488 <notify>
  401c89:	0f 84 86 00 00 00    	je     401d15 <notify_server+0x153>
  401c8f:	85 db                	test   %ebx,%ebx
  401c91:	74 70                	je     401d03 <notify_server+0x141>
  401c93:	4c 8d 8c 24 20 20 00 	lea    0x2020(%rsp),%r9
  401c9a:	00 
  401c9b:	41 b8 00 00 00 00    	mov    $0x0,%r8d
  401ca1:	48 8d 4c 24 20       	lea    0x20(%rsp),%rcx
  401ca6:	48 8b 15 a3 34 20 00 	mov    0x2034a3(%rip),%rdx        # 605150 <lab>
  401cad:	48 8b 35 a4 34 20 00 	mov    0x2034a4(%rip),%rsi        # 605158 <course>
  401cb4:	48 8b 3d 85 34 20 00 	mov    0x203485(%rip),%rdi        # 605140 <user_id>
  401cbb:	e8 8f 10 00 00       	callq  402d4f <driver_post>
  401cc0:	85 c0                	test   %eax,%eax
  401cc2:	79 26                	jns    401cea <notify_server+0x128>
  401cc4:	48 8d 94 24 20 20 00 	lea    0x2020(%rsp),%rdx
  401ccb:	00 
  401ccc:	be ef 32 40 00       	mov    $0x4032ef,%esi
  401cd1:	bf 01 00 00 00       	mov    $0x1,%edi
  401cd6:	b8 00 00 00 00       	mov    $0x0,%eax
  401cdb:	e8 c0 f0 ff ff       	callq  400da0 <__printf_chk@plt>
  401ce0:	bf 01 00 00 00       	mov    $0x1,%edi
  401ce5:	e8 06 f1 ff ff       	callq  400df0 <exit@plt>
  401cea:	bf 18 34 40 00       	mov    $0x403418,%edi
  401cef:	e8 7c ef ff ff       	callq  400c70 <puts@plt>
  401cf4:	bf fb 32 40 00       	mov    $0x4032fb,%edi
  401cf9:	e8 72 ef ff ff       	callq  400c70 <puts@plt>
  401cfe:	e9 a2 00 00 00       	jmpq   401da5 <notify_server+0x1e3>
  401d03:	bf 05 33 40 00       	mov    $0x403305,%edi
  401d08:	e8 63 ef ff ff       	callq  400c70 <puts@plt>
  401d0d:	0f 1f 00             	nopl   (%rax)
  401d10:	e9 90 00 00 00       	jmpq   401da5 <notify_server+0x1e3>
  401d15:	85 db                	test   %ebx,%ebx
  401d17:	74 09                	je     401d22 <notify_server+0x160>
  401d19:	ba c9 32 40 00       	mov    $0x4032c9,%edx
  401d1e:	66 90                	xchg   %ax,%ax
  401d20:	eb 05                	jmp    401d27 <notify_server+0x165>
  401d22:	ba ce 32 40 00       	mov    $0x4032ce,%edx
  401d27:	be 50 34 40 00       	mov    $0x403450,%esi
  401d2c:	bf 01 00 00 00       	mov    $0x1,%edi
  401d31:	b8 00 00 00 00       	mov    $0x0,%eax
  401d36:	e8 65 f0 ff ff       	callq  400da0 <__printf_chk@plt>
  401d3b:	48 8b 15 fe 33 20 00 	mov    0x2033fe(%rip),%rdx        # 605140 <user_id>
  401d42:	be 0c 33 40 00       	mov    $0x40330c,%esi
  401d47:	bf 01 00 00 00       	mov    $0x1,%edi
  401d4c:	b8 00 00 00 00       	mov    $0x0,%eax
  401d51:	e8 4a f0 ff ff       	callq  400da0 <__printf_chk@plt>
  401d56:	48 8b 15 fb 33 20 00 	mov    0x2033fb(%rip),%rdx        # 605158 <course>
  401d5d:	be 19 33 40 00       	mov    $0x403319,%esi
  401d62:	bf 01 00 00 00       	mov    $0x1,%edi
  401d67:	b8 00 00 00 00       	mov    $0x0,%eax
  401d6c:	e8 2f f0 ff ff       	callq  400da0 <__printf_chk@plt>
  401d71:	48 8b 15 d8 33 20 00 	mov    0x2033d8(%rip),%rdx        # 605150 <lab>
  401d78:	be 25 33 40 00       	mov    $0x403325,%esi
  401d7d:	bf 01 00 00 00       	mov    $0x1,%edi
  401d82:	b8 00 00 00 00       	mov    $0x0,%eax
  401d87:	e8 14 f0 ff ff       	callq  400da0 <__printf_chk@plt>
  401d8c:	48 8d 54 24 20       	lea    0x20(%rsp),%rdx
  401d91:	be 2e 33 40 00       	mov    $0x40332e,%esi
  401d96:	bf 01 00 00 00       	mov    $0x1,%edi
  401d9b:	b8 00 00 00 00       	mov    $0x0,%eax
  401da0:	e8 fb ef ff ff       	callq  400da0 <__printf_chk@plt>
  401da5:	48 8b 84 24 28 40 00 	mov    0x4028(%rsp),%rax
  401dac:	00 
  401dad:	64 48 33 04 25 28 00 	xor    %fs:0x28,%rax
  401db4:	00 00 
  401db6:	74 05                	je     401dbd <notify_server+0x1fb>
  401db8:	e8 d3 ee ff ff       	callq  400c90 <__stack_chk_fail@plt>
  401dbd:	48 81 c4 30 40 00 00 	add    $0x4030,%rsp
  401dc4:	5b                   	pop    %rbx
  401dc5:	c3                   	retq   

0000000000401dc6 <validate>:
  401dc6:	53                   	push   %rbx
  401dc7:	89 fb                	mov    %edi,%ebx
  401dc9:	83 3d 18 37 20 00 00 	cmpl   $0x0,0x203718(%rip)        # 6054e8 <is_checker>
  401dd0:	74 6b                	je     401e3d <validate+0x77>
  401dd2:	39 3d 04 37 20 00    	cmp    %edi,0x203704(%rip)        # 6054dc <vlevel>
  401dd8:	74 14                	je     401dee <validate+0x28>
  401dda:	bf 3a 33 40 00       	mov    $0x40333a,%edi
  401ddf:	e8 8c ee ff ff       	callq  400c70 <puts@plt>
  401de4:	b8 00 00 00 00       	mov    $0x0,%eax
  401de9:	e8 4d fd ff ff       	callq  401b3b <check_fail>
  401dee:	8b 15 e4 36 20 00    	mov    0x2036e4(%rip),%edx        # 6054d8 <check_level>
  401df4:	39 fa                	cmp    %edi,%edx
  401df6:	74 20                	je     401e18 <validate+0x52>
  401df8:	89 f9                	mov    %edi,%ecx
  401dfa:	be 78 34 40 00       	mov    $0x403478,%esi
  401dff:	bf 01 00 00 00       	mov    $0x1,%edi
  401e04:	b8 00 00 00 00       	mov    $0x0,%eax
  401e09:	e8 92 ef ff ff       	callq  400da0 <__printf_chk@plt>
  401e0e:	b8 00 00 00 00       	mov    $0x0,%eax
  401e13:	e8 23 fd ff ff       	callq  401b3b <check_fail>
  401e18:	0f be 15 e9 42 20 00 	movsbl 0x2042e9(%rip),%edx        # 606108 <target_prefix>
  401e1f:	41 b8 00 55 60 00    	mov    $0x605500,%r8d
  401e25:	89 f9                	mov    %edi,%ecx
  401e27:	be 58 33 40 00       	mov    $0x403358,%esi
  401e2c:	bf 01 00 00 00       	mov    $0x1,%edi
  401e31:	b8 00 00 00 00       	mov    $0x0,%eax
  401e36:	e8 65 ef ff ff       	callq  400da0 <__printf_chk@plt>
  401e3b:	eb 49                	jmp    401e86 <validate+0xc0>
  401e3d:	39 3d 99 36 20 00    	cmp    %edi,0x203699(%rip)        # 6054dc <vlevel>
  401e43:	74 18                	je     401e5d <validate+0x97>
  401e45:	bf 3a 33 40 00       	mov    $0x40333a,%edi
  401e4a:	e8 21 ee ff ff       	callq  400c70 <puts@plt>
  401e4f:	89 de                	mov    %ebx,%esi
  401e51:	bf 00 00 00 00       	mov    $0x0,%edi
  401e56:	e8 67 fd ff ff       	callq  401bc2 <notify_server>
  401e5b:	eb 29                	jmp    401e86 <validate+0xc0>
  401e5d:	0f be 0d a4 42 20 00 	movsbl 0x2042a4(%rip),%ecx        # 606108 <target_prefix>
  401e64:	89 fa                	mov    %edi,%edx
  401e66:	be a0 34 40 00       	mov    $0x4034a0,%esi
  401e6b:	bf 01 00 00 00       	mov    $0x1,%edi
  401e70:	b8 00 00 00 00       	mov    $0x0,%eax
  401e75:	e8 26 ef ff ff       	callq  400da0 <__printf_chk@plt>
  401e7a:	89 de                	mov    %ebx,%esi
  401e7c:	bf 01 00 00 00       	mov    $0x1,%edi
  401e81:	e8 3c fd ff ff       	callq  401bc2 <notify_server>
  401e86:	5b                   	pop    %rbx
  401e87:	c3                   	retq   

0000000000401e88 <fail>:
  401e88:	48 83 ec 08          	sub    $0x8,%rsp
  401e8c:	83 3d 55 36 20 00 00 	cmpl   $0x0,0x203655(%rip)        # 6054e8 <is_checker>
  401e93:	74 0a                	je     401e9f <fail+0x17>
  401e95:	b8 00 00 00 00       	mov    $0x0,%eax
  401e9a:	e8 9c fc ff ff       	callq  401b3b <check_fail>
  401e9f:	89 fe                	mov    %edi,%esi
  401ea1:	bf 00 00 00 00       	mov    $0x0,%edi
  401ea6:	e8 17 fd ff ff       	callq  401bc2 <notify_server>
  401eab:	48 83 c4 08          	add    $0x8,%rsp
  401eaf:	c3                   	retq   

0000000000401eb0 <bushandler>:
  401eb0:	48 83 ec 08          	sub    $0x8,%rsp
  401eb4:	83 3d 2d 36 20 00 00 	cmpl   $0x0,0x20362d(%rip)        # 6054e8 <is_checker>
  401ebb:	74 14                	je     401ed1 <bushandler+0x21>
  401ebd:	bf 6d 33 40 00       	mov    $0x40336d,%edi
  401ec2:	e8 a9 ed ff ff       	callq  400c70 <puts@plt>
  401ec7:	b8 00 00 00 00       	mov    $0x0,%eax
  401ecc:	e8 6a fc ff ff       	callq  401b3b <check_fail>
  401ed1:	bf d8 34 40 00       	mov    $0x4034d8,%edi
  401ed6:	e8 95 ed ff ff       	callq  400c70 <puts@plt>
  401edb:	bf 77 33 40 00       	mov    $0x403377,%edi
  401ee0:	e8 8b ed ff ff       	callq  400c70 <puts@plt>
  401ee5:	be 00 00 00 00       	mov    $0x0,%esi
  401eea:	bf 00 00 00 00       	mov    $0x0,%edi
  401eef:	e8 ce fc ff ff       	callq  401bc2 <notify_server>
  401ef4:	bf 01 00 00 00       	mov    $0x1,%edi
  401ef9:	e8 f2 ee ff ff       	callq  400df0 <exit@plt>

0000000000401efe <seghandler>:
  401efe:	48 83 ec 08          	sub    $0x8,%rsp
  401f02:	83 3d df 35 20 00 00 	cmpl   $0x0,0x2035df(%rip)        # 6054e8 <is_checker>
  401f09:	74 14                	je     401f1f <seghandler+0x21>
  401f0b:	bf 8d 33 40 00       	mov    $0x40338d,%edi
  401f10:	e8 5b ed ff ff       	callq  400c70 <puts@plt>
  401f15:	b8 00 00 00 00       	mov    $0x0,%eax
  401f1a:	e8 1c fc ff ff       	callq  401b3b <check_fail>
  401f1f:	bf f8 34 40 00       	mov    $0x4034f8,%edi
  401f24:	e8 47 ed ff ff       	callq  400c70 <puts@plt>
  401f29:	bf 77 33 40 00       	mov    $0x403377,%edi
  401f2e:	e8 3d ed ff ff       	callq  400c70 <puts@plt>
  401f33:	be 00 00 00 00       	mov    $0x0,%esi
  401f38:	bf 00 00 00 00       	mov    $0x0,%edi
  401f3d:	e8 80 fc ff ff       	callq  401bc2 <notify_server>
  401f42:	bf 01 00 00 00       	mov    $0x1,%edi
  401f47:	e8 a4 ee ff ff       	callq  400df0 <exit@plt>

0000000000401f4c <illegalhandler>:
  401f4c:	48 83 ec 08          	sub    $0x8,%rsp
  401f50:	83 3d 91 35 20 00 00 	cmpl   $0x0,0x203591(%rip)        # 6054e8 <is_checker>
  401f57:	74 14                	je     401f6d <illegalhandler+0x21>
  401f59:	bf a0 33 40 00       	mov    $0x4033a0,%edi
  401f5e:	e8 0d ed ff ff       	callq  400c70 <puts@plt>
  401f63:	b8 00 00 00 00       	mov    $0x0,%eax
  401f68:	e8 ce fb ff ff       	callq  401b3b <check_fail>
  401f6d:	bf 20 35 40 00       	mov    $0x403520,%edi
  401f72:	e8 f9 ec ff ff       	callq  400c70 <puts@plt>
  401f77:	bf 77 33 40 00       	mov    $0x403377,%edi
  401f7c:	e8 ef ec ff ff       	callq  400c70 <puts@plt>
  401f81:	be 00 00 00 00       	mov    $0x0,%esi
  401f86:	bf 00 00 00 00       	mov    $0x0,%edi
  401f8b:	e8 32 fc ff ff       	callq  401bc2 <notify_server>
  401f90:	bf 01 00 00 00       	mov    $0x1,%edi
  401f95:	e8 56 ee ff ff       	callq  400df0 <exit@plt>

0000000000401f9a <sigalrmhandler>:
  401f9a:	48 83 ec 08          	sub    $0x8,%rsp
  401f9e:	83 3d 43 35 20 00 00 	cmpl   $0x0,0x203543(%rip)        # 6054e8 <is_checker>
  401fa5:	74 14                	je     401fbb <sigalrmhandler+0x21>
  401fa7:	bf b4 33 40 00       	mov    $0x4033b4,%edi
  401fac:	e8 bf ec ff ff       	callq  400c70 <puts@plt>
  401fb1:	b8 00 00 00 00       	mov    $0x0,%eax
  401fb6:	e8 80 fb ff ff       	callq  401b3b <check_fail>
  401fbb:	ba 05 00 00 00       	mov    $0x5,%edx
  401fc0:	be 50 35 40 00       	mov    $0x403550,%esi
  401fc5:	bf 01 00 00 00       	mov    $0x1,%edi
  401fca:	b8 00 00 00 00       	mov    $0x0,%eax
  401fcf:	e8 cc ed ff ff       	callq  400da0 <__printf_chk@plt>
  401fd4:	be 00 00 00 00       	mov    $0x0,%esi
  401fd9:	bf 00 00 00 00       	mov    $0x0,%edi
  401fde:	e8 df fb ff ff       	callq  401bc2 <notify_server>
  401fe3:	bf 01 00 00 00       	mov    $0x1,%edi
  401fe8:	e8 03 ee ff ff       	callq  400df0 <exit@plt>

0000000000401fed <launch>:
  401fed:	55                   	push   %rbp
  401fee:	48 89 e5             	mov    %rsp,%rbp
  401ff1:	48 83 ec 10          	sub    $0x10,%rsp
  401ff5:	48 89 fa             	mov    %rdi,%rdx
  401ff8:	64 48 8b 04 25 28 00 	mov    %fs:0x28,%rax
  401fff:	00 00 
  402001:	48 89 45 f8          	mov    %rax,-0x8(%rbp)
  402005:	31 c0                	xor    %eax,%eax
  402007:	48 8d 47 1e          	lea    0x1e(%rdi),%rax
  40200b:	48 83 e0 f0          	and    $0xfffffffffffffff0,%rax
  40200f:	48 29 c4             	sub    %rax,%rsp
  402012:	48 8d 7c 24 0f       	lea    0xf(%rsp),%rdi
  402017:	48 83 e7 f0          	and    $0xfffffffffffffff0,%rdi
  40201b:	be f4 00 00 00       	mov    $0xf4,%esi
  402020:	e8 8b ec ff ff       	callq  400cb0 <memset@plt>
  402025:	48 8b 05 74 34 20 00 	mov    0x203474(%rip),%rax        # 6054a0 <stdin@@GLIBC_2.2.5>
  40202c:	48 39 05 9d 34 20 00 	cmp    %rax,0x20349d(%rip)        # 6054d0 <infile>
  402033:	75 14                	jne    402049 <launch+0x5c>
  402035:	be bc 33 40 00       	mov    $0x4033bc,%esi
  40203a:	bf 01 00 00 00       	mov    $0x1,%edi
  40203f:	b8 00 00 00 00       	mov    $0x0,%eax
  402044:	e8 57 ed ff ff       	callq  400da0 <__printf_chk@plt>
  402049:	c7 05 89 34 20 00 00 	movl   $0x0,0x203489(%rip)        # 6054dc <vlevel>
  402050:	00 00 00 
  402053:	b8 00 00 00 00       	mov    $0x0,%eax
  402058:	e8 17 f9 ff ff       	callq  401974 <test>
  40205d:	83 3d 84 34 20 00 00 	cmpl   $0x0,0x203484(%rip)        # 6054e8 <is_checker>
  402064:	74 14                	je     40207a <launch+0x8d>
  402066:	bf c9 33 40 00       	mov    $0x4033c9,%edi
  40206b:	e8 00 ec ff ff       	callq  400c70 <puts@plt>
  402070:	b8 00 00 00 00       	mov    $0x0,%eax
  402075:	e8 c1 fa ff ff       	callq  401b3b <check_fail>
  40207a:	bf d4 33 40 00       	mov    $0x4033d4,%edi
  40207f:	e8 ec eb ff ff       	callq  400c70 <puts@plt>
  402084:	48 8b 45 f8          	mov    -0x8(%rbp),%rax
  402088:	64 48 33 04 25 28 00 	xor    %fs:0x28,%rax
  40208f:	00 00 
  402091:	74 05                	je     402098 <launch+0xab>
  402093:	e8 f8 eb ff ff       	callq  400c90 <__stack_chk_fail@plt>
  402098:	c9                   	leaveq 
  402099:	c3                   	retq   

000000000040209a <stable_launch>:
  40209a:	53                   	push   %rbx
  40209b:	48 89 3d 26 34 20 00 	mov    %rdi,0x203426(%rip)        # 6054c8 <global_offset>
  4020a2:	41 b9 00 00 00 00    	mov    $0x0,%r9d
  4020a8:	41 b8 00 00 00 00    	mov    $0x0,%r8d
  4020ae:	b9 32 01 00 00       	mov    $0x132,%ecx
  4020b3:	ba 07 00 00 00       	mov    $0x7,%edx
  4020b8:	be 00 00 10 00       	mov    $0x100000,%esi
  4020bd:	bf 00 60 58 55       	mov    $0x55586000,%edi
  4020c2:	e8 d9 eb ff ff       	callq  400ca0 <mmap@plt>
  4020c7:	48 89 c3             	mov    %rax,%rbx
  4020ca:	48 3d 00 60 58 55    	cmp    $0x55586000,%rax
  4020d0:	74 37                	je     402109 <stable_launch+0x6f>
  4020d2:	be 00 00 10 00       	mov    $0x100000,%esi
  4020d7:	48 89 c7             	mov    %rax,%rdi
  4020da:	e8 b1 ec ff ff       	callq  400d90 <munmap@plt>
  4020df:	b9 00 60 58 55       	mov    $0x55586000,%ecx
  4020e4:	ba 88 35 40 00       	mov    $0x403588,%edx
  4020e9:	be 01 00 00 00       	mov    $0x1,%esi
  4020ee:	48 8b 3d bb 33 20 00 	mov    0x2033bb(%rip),%rdi        # 6054b0 <stderr@@GLIBC_2.2.5>
  4020f5:	b8 00 00 00 00       	mov    $0x0,%eax
  4020fa:	e8 11 ed ff ff       	callq  400e10 <__fprintf_chk@plt>
  4020ff:	bf 01 00 00 00       	mov    $0x1,%edi
  402104:	e8 e7 ec ff ff       	callq  400df0 <exit@plt>
  402109:	48 8d 90 f8 ff 0f 00 	lea    0xffff8(%rax),%rdx
  402110:	48 89 15 f9 3f 20 00 	mov    %rdx,0x203ff9(%rip)        # 606110 <stack_top>
  402117:	48 89 e0             	mov    %rsp,%rax
  40211a:	48 89 d4             	mov    %rdx,%rsp
  40211d:	48 89 c2             	mov    %rax,%rdx
  402120:	48 89 15 99 33 20 00 	mov    %rdx,0x203399(%rip)        # 6054c0 <global_save_stack>
  402127:	48 8b 3d 9a 33 20 00 	mov    0x20339a(%rip),%rdi        # 6054c8 <global_offset>
  40212e:	e8 ba fe ff ff       	callq  401fed <launch>
  402133:	48 8b 05 86 33 20 00 	mov    0x203386(%rip),%rax        # 6054c0 <global_save_stack>
  40213a:	48 89 c4             	mov    %rax,%rsp
  40213d:	be 00 00 10 00       	mov    $0x100000,%esi
  402142:	48 89 df             	mov    %rbx,%rdi
  402145:	e8 46 ec ff ff       	callq  400d90 <munmap@plt>
  40214a:	5b                   	pop    %rbx
  40214b:	c3                   	retq   
  40214c:	90                   	nop
  40214d:	90                   	nop
  40214e:	90                   	nop
  40214f:	90                   	nop

0000000000402150 <rio_readinitb>:
  402150:	89 37                	mov    %esi,(%rdi)
  402152:	c7 47 04 00 00 00 00 	movl   $0x0,0x4(%rdi)
  402159:	48 8d 47 10          	lea    0x10(%rdi),%rax
  40215d:	48 89 47 08          	mov    %rax,0x8(%rdi)
  402161:	c3                   	retq   

0000000000402162 <sigalrm_handler>:
  402162:	48 83 ec 08          	sub    $0x8,%rsp
  402166:	b9 00 00 00 00       	mov    $0x0,%ecx
  40216b:	ba c0 35 40 00       	mov    $0x4035c0,%edx
  402170:	be 01 00 00 00       	mov    $0x1,%esi
  402175:	48 8b 3d 34 33 20 00 	mov    0x203334(%rip),%rdi        # 6054b0 <stderr@@GLIBC_2.2.5>
  40217c:	b8 00 00 00 00       	mov    $0x0,%eax
  402181:	e8 8a ec ff ff       	callq  400e10 <__fprintf_chk@plt>
  402186:	bf 01 00 00 00       	mov    $0x1,%edi
  40218b:	e8 60 ec ff ff       	callq  400df0 <exit@plt>

0000000000402190 <rio_writen>:
  402190:	41 55                	push   %r13
  402192:	41 54                	push   %r12
  402194:	55                   	push   %rbp
  402195:	53                   	push   %rbx
  402196:	48 83 ec 08          	sub    $0x8,%rsp
  40219a:	41 89 fc             	mov    %edi,%r12d
  40219d:	48 89 f5             	mov    %rsi,%rbp
  4021a0:	49 89 d5             	mov    %rdx,%r13
  4021a3:	48 89 d3             	mov    %rdx,%rbx
  4021a6:	eb 28                	jmp    4021d0 <rio_writen+0x40>
  4021a8:	48 89 da             	mov    %rbx,%rdx
  4021ab:	48 89 ee             	mov    %rbp,%rsi
  4021ae:	44 89 e7             	mov    %r12d,%edi
  4021b1:	e8 ca ea ff ff       	callq  400c80 <write@plt>
  4021b6:	48 85 c0             	test   %rax,%rax
  4021b9:	7f 0f                	jg     4021ca <rio_writen+0x3a>
  4021bb:	e8 70 ea ff ff       	callq  400c30 <__errno_location@plt>
  4021c0:	83 38 04             	cmpl   $0x4,(%rax)
  4021c3:	75 15                	jne    4021da <rio_writen+0x4a>
  4021c5:	b8 00 00 00 00       	mov    $0x0,%eax
  4021ca:	48 29 c3             	sub    %rax,%rbx
  4021cd:	48 01 c5             	add    %rax,%rbp
  4021d0:	48 85 db             	test   %rbx,%rbx
  4021d3:	75 d3                	jne    4021a8 <rio_writen+0x18>
  4021d5:	4c 89 e8             	mov    %r13,%rax
  4021d8:	eb 07                	jmp    4021e1 <rio_writen+0x51>
  4021da:	48 c7 c0 ff ff ff ff 	mov    $0xffffffffffffffff,%rax
  4021e1:	48 83 c4 08          	add    $0x8,%rsp
  4021e5:	5b                   	pop    %rbx
  4021e6:	5d                   	pop    %rbp
  4021e7:	41 5c                	pop    %r12
  4021e9:	41 5d                	pop    %r13
  4021eb:	c3                   	retq   

00000000004021ec <rio_read>:
  4021ec:	41 56                	push   %r14
  4021ee:	41 55                	push   %r13
  4021f0:	41 54                	push   %r12
  4021f2:	55                   	push   %rbp
  4021f3:	53                   	push   %rbx
  4021f4:	48 89 fb             	mov    %rdi,%rbx
  4021f7:	49 89 f6             	mov    %rsi,%r14
  4021fa:	49 89 d5             	mov    %rdx,%r13
  4021fd:	4c 8d 67 10          	lea    0x10(%rdi),%r12
  402201:	eb 2a                	jmp    40222d <rio_read+0x41>
  402203:	8b 3b                	mov    (%rbx),%edi
  402205:	ba 00 20 00 00       	mov    $0x2000,%edx
  40220a:	4c 89 e6             	mov    %r12,%rsi
  40220d:	e8 ce ea ff ff       	callq  400ce0 <read@plt>
  402212:	89 43 04             	mov    %eax,0x4(%rbx)
  402215:	85 c0                	test   %eax,%eax
  402217:	79 0c                	jns    402225 <rio_read+0x39>
  402219:	e8 12 ea ff ff       	callq  400c30 <__errno_location@plt>
  40221e:	83 38 04             	cmpl   $0x4,(%rax)
  402221:	74 0a                	je     40222d <rio_read+0x41>
  402223:	eb 37                	jmp    40225c <rio_read+0x70>
  402225:	85 c0                	test   %eax,%eax
  402227:	74 3c                	je     402265 <rio_read+0x79>
  402229:	4c 89 63 08          	mov    %r12,0x8(%rbx)
  40222d:	8b 6b 04             	mov    0x4(%rbx),%ebp
  402230:	85 ed                	test   %ebp,%ebp
  402232:	7e cf                	jle    402203 <rio_read+0x17>
  402234:	89 e8                	mov    %ebp,%eax
  402236:	4c 39 e8             	cmp    %r13,%rax
  402239:	72 03                	jb     40223e <rio_read+0x52>
  40223b:	44 89 ed             	mov    %r13d,%ebp
  40223e:	4c 63 e5             	movslq %ebp,%r12
  402241:	48 8b 73 08          	mov    0x8(%rbx),%rsi
  402245:	4c 89 e2             	mov    %r12,%rdx
  402248:	4c 89 f7             	mov    %r14,%rdi
  40224b:	e8 f0 ea ff ff       	callq  400d40 <memcpy@plt>
  402250:	4c 01 63 08          	add    %r12,0x8(%rbx)
  402254:	29 6b 04             	sub    %ebp,0x4(%rbx)
  402257:	4c 89 e0             	mov    %r12,%rax
  40225a:	eb 0e                	jmp    40226a <rio_read+0x7e>
  40225c:	48 c7 c0 ff ff ff ff 	mov    $0xffffffffffffffff,%rax
  402263:	eb 05                	jmp    40226a <rio_read+0x7e>
  402265:	b8 00 00 00 00       	mov    $0x0,%eax
  40226a:	5b                   	pop    %rbx
  40226b:	5d                   	pop    %rbp
  40226c:	41 5c                	pop    %r12
  40226e:	41 5d                	pop    %r13
  402270:	41 5e                	pop    %r14
  402272:	c3                   	retq   

0000000000402273 <rio_readlineb>:
  402273:	41 55                	push   %r13
  402275:	41 54                	push   %r12
  402277:	55                   	push   %rbp
  402278:	53                   	push   %rbx
  402279:	48 83 ec 18          	sub    $0x18,%rsp
  40227d:	49 89 fd             	mov    %rdi,%r13
  402280:	48 89 f5             	mov    %rsi,%rbp
  402283:	49 89 d4             	mov    %rdx,%r12
  402286:	bb 01 00 00 00       	mov    $0x1,%ebx
  40228b:	eb 3e                	jmp    4022cb <rio_readlineb+0x58>
  40228d:	ba 01 00 00 00       	mov    $0x1,%edx
  402292:	48 8d 74 24 0f       	lea    0xf(%rsp),%rsi
  402297:	4c 89 ef             	mov    %r13,%rdi
  40229a:	e8 4d ff ff ff       	callq  4021ec <rio_read>
  40229f:	83 f8 01             	cmp    $0x1,%eax
  4022a2:	75 12                	jne    4022b6 <rio_readlineb+0x43>
  4022a4:	48 8d 55 01          	lea    0x1(%rbp),%rdx
  4022a8:	0f b6 44 24 0f       	movzbl 0xf(%rsp),%eax
  4022ad:	88 45 00             	mov    %al,0x0(%rbp)
  4022b0:	3c 0a                	cmp    $0xa,%al
  4022b2:	75 10                	jne    4022c4 <rio_readlineb+0x51>
  4022b4:	eb 1c                	jmp    4022d2 <rio_readlineb+0x5f>
  4022b6:	85 c0                	test   %eax,%eax
  4022b8:	75 24                	jne    4022de <rio_readlineb+0x6b>
  4022ba:	48 83 fb 01          	cmp    $0x1,%rbx
  4022be:	66 90                	xchg   %ax,%ax
  4022c0:	75 13                	jne    4022d5 <rio_readlineb+0x62>
  4022c2:	eb 23                	jmp    4022e7 <rio_readlineb+0x74>
  4022c4:	48 83 c3 01          	add    $0x1,%rbx
  4022c8:	48 89 d5             	mov    %rdx,%rbp
  4022cb:	4c 39 e3             	cmp    %r12,%rbx
  4022ce:	72 bd                	jb     40228d <rio_readlineb+0x1a>
  4022d0:	eb 03                	jmp    4022d5 <rio_readlineb+0x62>
  4022d2:	48 89 d5             	mov    %rdx,%rbp
  4022d5:	c6 45 00 00          	movb   $0x0,0x0(%rbp)
  4022d9:	48 89 d8             	mov    %rbx,%rax
  4022dc:	eb 0e                	jmp    4022ec <rio_readlineb+0x79>
  4022de:	48 c7 c0 ff ff ff ff 	mov    $0xffffffffffffffff,%rax
  4022e5:	eb 05                	jmp    4022ec <rio_readlineb+0x79>
  4022e7:	b8 00 00 00 00       	mov    $0x0,%eax
  4022ec:	48 83 c4 18          	add    $0x18,%rsp
  4022f0:	5b                   	pop    %rbx
  4022f1:	5d                   	pop    %rbp
  4022f2:	41 5c                	pop    %r12
  4022f4:	41 5d                	pop    %r13
  4022f6:	c3                   	retq   

00000000004022f7 <urlencode>:
  4022f7:	41 54                	push   %r12
  4022f9:	55                   	push   %rbp
  4022fa:	53                   	push   %rbx
  4022fb:	48 83 ec 10          	sub    $0x10,%rsp
  4022ff:	48 89 fb             	mov    %rdi,%rbx
  402302:	48 89 f5             	mov    %rsi,%rbp
  402305:	64 48 8b 04 25 28 00 	mov    %fs:0x28,%rax
  40230c:	00 00 
  40230e:	48 89 44 24 08       	mov    %rax,0x8(%rsp)
  402313:	31 c0                	xor    %eax,%eax
  402315:	48 c7 c1 ff ff ff ff 	mov    $0xffffffffffffffff,%rcx
  40231c:	f2 ae                	repnz scas %es:(%rdi),%al
  40231e:	48 f7 d1             	not    %rcx
  402321:	8d 41 ff             	lea    -0x1(%rcx),%eax
  402324:	e9 aa 00 00 00       	jmpq   4023d3 <urlencode+0xdc>
  402329:	44 0f b6 03          	movzbl (%rbx),%r8d
  40232d:	41 80 f8 2a          	cmp    $0x2a,%r8b
  402331:	0f 94 c2             	sete   %dl
  402334:	41 80 f8 2d          	cmp    $0x2d,%r8b
  402338:	0f 94 c0             	sete   %al
  40233b:	08 c2                	or     %al,%dl
  40233d:	75 24                	jne    402363 <urlencode+0x6c>
  40233f:	41 80 f8 2e          	cmp    $0x2e,%r8b
  402343:	74 1e                	je     402363 <urlencode+0x6c>
  402345:	41 80 f8 5f          	cmp    $0x5f,%r8b
  402349:	74 18                	je     402363 <urlencode+0x6c>
  40234b:	41 8d 40 d0          	lea    -0x30(%r8),%eax
  40234f:	3c 09                	cmp    $0x9,%al
  402351:	76 10                	jbe    402363 <urlencode+0x6c>
  402353:	41 8d 40 bf          	lea    -0x41(%r8),%eax
  402357:	3c 19                	cmp    $0x19,%al
  402359:	76 08                	jbe    402363 <urlencode+0x6c>
  40235b:	41 8d 40 9f          	lea    -0x61(%r8),%eax
  40235f:	3c 19                	cmp    $0x19,%al
  402361:	77 0a                	ja     40236d <urlencode+0x76>
  402363:	44 88 45 00          	mov    %r8b,0x0(%rbp)
  402367:	48 8d 6d 01          	lea    0x1(%rbp),%rbp
  40236b:	eb 5f                	jmp    4023cc <urlencode+0xd5>
  40236d:	41 80 f8 20          	cmp    $0x20,%r8b
  402371:	75 0a                	jne    40237d <urlencode+0x86>
  402373:	c6 45 00 2b          	movb   $0x2b,0x0(%rbp)
  402377:	48 8d 6d 01          	lea    0x1(%rbp),%rbp
  40237b:	eb 4f                	jmp    4023cc <urlencode+0xd5>
  40237d:	41 8d 40 e0          	lea    -0x20(%r8),%eax
  402381:	3c 5f                	cmp    $0x5f,%al
  402383:	0f 96 c2             	setbe  %dl
  402386:	41 80 f8 09          	cmp    $0x9,%r8b
  40238a:	0f 94 c0             	sete   %al
  40238d:	08 c2                	or     %al,%dl
  40238f:	74 50                	je     4023e1 <urlencode+0xea>
  402391:	45 0f b6 c0          	movzbl %r8b,%r8d
  402395:	b9 58 36 40 00       	mov    $0x403658,%ecx
  40239a:	ba 08 00 00 00       	mov    $0x8,%edx
  40239f:	be 01 00 00 00       	mov    $0x1,%esi
  4023a4:	48 89 e7             	mov    %rsp,%rdi
  4023a7:	b8 00 00 00 00       	mov    $0x0,%eax
  4023ac:	e8 6f ea ff ff       	callq  400e20 <__sprintf_chk@plt>
  4023b1:	0f b6 04 24          	movzbl (%rsp),%eax
  4023b5:	88 45 00             	mov    %al,0x0(%rbp)
  4023b8:	0f b6 44 24 01       	movzbl 0x1(%rsp),%eax
  4023bd:	88 45 01             	mov    %al,0x1(%rbp)
  4023c0:	0f b6 44 24 02       	movzbl 0x2(%rsp),%eax
  4023c5:	88 45 02             	mov    %al,0x2(%rbp)
  4023c8:	48 8d 6d 03          	lea    0x3(%rbp),%rbp
  4023cc:	48 83 c3 01          	add    $0x1,%rbx
  4023d0:	44 89 e0             	mov    %r12d,%eax
  4023d3:	44 8d 60 ff          	lea    -0x1(%rax),%r12d
  4023d7:	85 c0                	test   %eax,%eax
  4023d9:	0f 85 4a ff ff ff    	jne    402329 <urlencode+0x32>
  4023df:	eb 05                	jmp    4023e6 <urlencode+0xef>
  4023e1:	b8 ff ff ff ff       	mov    $0xffffffff,%eax
  4023e6:	48 8b 74 24 08       	mov    0x8(%rsp),%rsi
  4023eb:	64 48 33 34 25 28 00 	xor    %fs:0x28,%rsi
  4023f2:	00 00 
  4023f4:	74 05                	je     4023fb <urlencode+0x104>
  4023f6:	e8 95 e8 ff ff       	callq  400c90 <__stack_chk_fail@plt>
  4023fb:	48 83 c4 10          	add    $0x10,%rsp
  4023ff:	5b                   	pop    %rbx
  402400:	5d                   	pop    %rbp
  402401:	41 5c                	pop    %r12
  402403:	c3                   	retq   

0000000000402404 <submitr>:
  402404:	41 57                	push   %r15
  402406:	41 56                	push   %r14
  402408:	41 55                	push   %r13
  40240a:	41 54                	push   %r12
  40240c:	55                   	push   %rbp
  40240d:	53                   	push   %rbx
  40240e:	48 81 ec 68 a0 00 00 	sub    $0xa068,%rsp
  402415:	49 89 fc             	mov    %rdi,%r12
  402418:	89 74 24 14          	mov    %esi,0x14(%rsp)
  40241c:	49 89 d7             	mov    %rdx,%r15
  40241f:	49 89 ce             	mov    %rcx,%r14
  402422:	4c 89 44 24 18       	mov    %r8,0x18(%rsp)
  402427:	4d 89 cd             	mov    %r9,%r13
  40242a:	48 8b 9c 24 a0 a0 00 	mov    0xa0a0(%rsp),%rbx
  402431:	00 
  402432:	64 48 8b 04 25 28 00 	mov    %fs:0x28,%rax
  402439:	00 00 
  40243b:	48 89 84 24 58 a0 00 	mov    %rax,0xa058(%rsp)
  402442:	00 
  402443:	31 c0                	xor    %eax,%eax
  402445:	c7 44 24 2c 00 00 00 	movl   $0x0,0x2c(%rsp)
  40244c:	00 
  40244d:	ba 00 00 00 00       	mov    $0x0,%edx
  402452:	be 01 00 00 00       	mov    $0x1,%esi
  402457:	bf 02 00 00 00       	mov    $0x2,%edi
  40245c:	e8 cf e9 ff ff       	callq  400e30 <socket@plt>
  402461:	89 c5                	mov    %eax,%ebp
  402463:	85 c0                	test   %eax,%eax
  402465:	79 4e                	jns    4024b5 <submitr+0xb1>
  402467:	48 b8 45 72 72 6f 72 	movabs $0x43203a726f727245,%rax
  40246e:	3a 20 43 
  402471:	48 89 03             	mov    %rax,(%rbx)
  402474:	48 b8 6c 69 65 6e 74 	movabs $0x6e7520746e65696c,%rax
  40247b:	20 75 6e 
  40247e:	48 89 43 08          	mov    %rax,0x8(%rbx)
  402482:	48 b8 61 62 6c 65 20 	movabs $0x206f7420656c6261,%rax
  402489:	74 6f 20 
  40248c:	48 89 43 10          	mov    %rax,0x10(%rbx)
  402490:	48 b8 63 72 65 61 74 	movabs $0x7320657461657263,%rax
  402497:	65 20 73 
  40249a:	48 89 43 18          	mov    %rax,0x18(%rbx)
  40249e:	c7 43 20 6f 63 6b 65 	movl   $0x656b636f,0x20(%rbx)
  4024a5:	66 c7 43 24 74 00    	movw   $0x74,0x24(%rbx)
  4024ab:	b8 ff ff ff ff       	mov    $0xffffffff,%eax
  4024b0:	e9 55 06 00 00       	jmpq   402b0a <submitr+0x706>
  4024b5:	4c 89 e7             	mov    %r12,%rdi
  4024b8:	e8 53 e8 ff ff       	callq  400d10 <gethostbyname@plt>
  4024bd:	48 85 c0             	test   %rax,%rax
  4024c0:	75 67                	jne    402529 <submitr+0x125>
  4024c2:	48 b8 45 72 72 6f 72 	movabs $0x44203a726f727245,%rax
  4024c9:	3a 20 44 
  4024cc:	48 89 03             	mov    %rax,(%rbx)
  4024cf:	48 b8 4e 53 20 69 73 	movabs $0x6e7520736920534e,%rax
  4024d6:	20 75 6e 
  4024d9:	48 89 43 08          	mov    %rax,0x8(%rbx)
  4024dd:	48 b8 61 62 6c 65 20 	movabs $0x206f7420656c6261,%rax
  4024e4:	74 6f 20 
  4024e7:	48 89 43 10          	mov    %rax,0x10(%rbx)
  4024eb:	48 b8 72 65 73 6f 6c 	movabs $0x2065766c6f736572,%rax
  4024f2:	76 65 20 
  4024f5:	48 89 43 18          	mov    %rax,0x18(%rbx)
  4024f9:	48 b8 73 65 72 76 65 	movabs $0x6120726576726573,%rax
  402500:	72 20 61 
  402503:	48 89 43 20          	mov    %rax,0x20(%rbx)
  402507:	c7 43 28 64 64 72 65 	movl   $0x65726464,0x28(%rbx)
  40250e:	66 c7 43 2c 73 73    	movw   $0x7373,0x2c(%rbx)
  402514:	c6 43 2e 00          	movb   $0x0,0x2e(%rbx)
  402518:	89 ef                	mov    %ebp,%edi
  40251a:	e8 b1 e7 ff ff       	callq  400cd0 <close@plt>
  40251f:	b8 ff ff ff ff       	mov    $0xffffffff,%eax
  402524:	e9 e1 05 00 00       	jmpq   402b0a <submitr+0x706>
  402529:	48 c7 44 24 30 00 00 	movq   $0x0,0x30(%rsp)
  402530:	00 00 
  402532:	48 c7 44 24 38 00 00 	movq   $0x0,0x38(%rsp)
  402539:	00 00 
  40253b:	66 c7 44 24 30 02 00 	movw   $0x2,0x30(%rsp)
  402542:	48 63 50 14          	movslq 0x14(%rax),%rdx
  402546:	48 8b 40 18          	mov    0x18(%rax),%rax
  40254a:	48 8b 30             	mov    (%rax),%rsi
  40254d:	48 8d 7c 24 34       	lea    0x34(%rsp),%rdi
  402552:	b9 0c 00 00 00       	mov    $0xc,%ecx
  402557:	e8 c4 e7 ff ff       	callq  400d20 <__memmove_chk@plt>
  40255c:	0f b7 44 24 14       	movzwl 0x14(%rsp),%eax
  402561:	66 c1 c8 08          	ror    $0x8,%ax
  402565:	66 89 44 24 32       	mov    %ax,0x32(%rsp)
  40256a:	ba 10 00 00 00       	mov    $0x10,%edx
  40256f:	48 8d 74 24 30       	lea    0x30(%rsp),%rsi
  402574:	89 ef                	mov    %ebp,%edi
  402576:	e8 85 e8 ff ff       	callq  400e00 <connect@plt>
  40257b:	85 c0                	test   %eax,%eax
  40257d:	79 59                	jns    4025d8 <submitr+0x1d4>
  40257f:	48 b8 45 72 72 6f 72 	movabs $0x55203a726f727245,%rax
  402586:	3a 20 55 
  402589:	48 89 03             	mov    %rax,(%rbx)
  40258c:	48 b8 6e 61 62 6c 65 	movabs $0x6f7420656c62616e,%rax
  402593:	20 74 6f 
  402596:	48 89 43 08          	mov    %rax,0x8(%rbx)
  40259a:	48 b8 20 63 6f 6e 6e 	movabs $0x7463656e6e6f6320,%rax
  4025a1:	65 63 74 
  4025a4:	48 89 43 10          	mov    %rax,0x10(%rbx)
  4025a8:	48 b8 20 74 6f 20 74 	movabs $0x20656874206f7420,%rax
  4025af:	68 65 20 
  4025b2:	48 89 43 18          	mov    %rax,0x18(%rbx)
  4025b6:	c7 43 20 73 65 72 76 	movl   $0x76726573,0x20(%rbx)
  4025bd:	66 c7 43 24 65 72    	movw   $0x7265,0x24(%rbx)
  4025c3:	c6 43 26 00          	movb   $0x0,0x26(%rbx)
  4025c7:	89 ef                	mov    %ebp,%edi
  4025c9:	e8 02 e7 ff ff       	callq  400cd0 <close@plt>
  4025ce:	b8 ff ff ff ff       	mov    $0xffffffff,%eax
  4025d3:	e9 32 05 00 00       	jmpq   402b0a <submitr+0x706>
  4025d8:	48 c7 c2 ff ff ff ff 	mov    $0xffffffffffffffff,%rdx
  4025df:	4c 89 ef             	mov    %r13,%rdi
  4025e2:	b8 00 00 00 00       	mov    $0x0,%eax
  4025e7:	48 89 d1             	mov    %rdx,%rcx
  4025ea:	f2 ae                	repnz scas %es:(%rdi),%al
  4025ec:	48 f7 d1             	not    %rcx
  4025ef:	48 89 ce             	mov    %rcx,%rsi
  4025f2:	4c 89 ff             	mov    %r15,%rdi
  4025f5:	48 89 d1             	mov    %rdx,%rcx
  4025f8:	f2 ae                	repnz scas %es:(%rdi),%al
  4025fa:	48 f7 d1             	not    %rcx
  4025fd:	49 89 c8             	mov    %rcx,%r8
  402600:	4c 89 f7             	mov    %r14,%rdi
  402603:	48 89 d1             	mov    %rdx,%rcx
  402606:	f2 ae                	repnz scas %es:(%rdi),%al
  402608:	49 29 c8             	sub    %rcx,%r8
  40260b:	48 8b 7c 24 18       	mov    0x18(%rsp),%rdi
  402610:	48 89 d1             	mov    %rdx,%rcx
  402613:	f2 ae                	repnz scas %es:(%rdi),%al
  402615:	49 29 c8             	sub    %rcx,%r8
  402618:	48 8d 44 76 fd       	lea    -0x3(%rsi,%rsi,2),%rax
  40261d:	49 8d 44 00 7b       	lea    0x7b(%r8,%rax,1),%rax
  402622:	48 3d 00 20 00 00    	cmp    $0x2000,%rax
  402628:	76 72                	jbe    40269c <submitr+0x298>
  40262a:	48 b8 45 72 72 6f 72 	movabs $0x52203a726f727245,%rax
  402631:	3a 20 52 
  402634:	48 89 03             	mov    %rax,(%rbx)
  402637:	48 b8 65 73 75 6c 74 	movabs $0x747320746c757365,%rax
  40263e:	20 73 74 
  402641:	48 89 43 08          	mov    %rax,0x8(%rbx)
  402645:	48 b8 72 69 6e 67 20 	movabs $0x6f6f7420676e6972,%rax
  40264c:	74 6f 6f 
  40264f:	48 89 43 10          	mov    %rax,0x10(%rbx)
  402653:	48 b8 20 6c 61 72 67 	movabs $0x202e656772616c20,%rax
  40265a:	65 2e 20 
  40265d:	48 89 43 18          	mov    %rax,0x18(%rbx)
  402661:	48 b8 49 6e 63 72 65 	movabs $0x6573616572636e49,%rax
  402668:	61 73 65 
  40266b:	48 89 43 20          	mov    %rax,0x20(%rbx)
  40266f:	48 b8 20 53 55 42 4d 	movabs $0x5254494d42555320,%rax
  402676:	49 54 52 
  402679:	48 89 43 28          	mov    %rax,0x28(%rbx)
  40267d:	48 b8 5f 4d 41 58 42 	movabs $0x46554258414d5f,%rax
  402684:	55 46 00 
  402687:	48 89 43 30          	mov    %rax,0x30(%rbx)
  40268b:	89 ef                	mov    %ebp,%edi
  40268d:	e8 3e e6 ff ff       	callq  400cd0 <close@plt>
  402692:	b8 ff ff ff ff       	mov    $0xffffffff,%eax
  402697:	e9 6e 04 00 00       	jmpq   402b0a <submitr+0x706>
  40269c:	48 8d b4 24 40 20 00 	lea    0x2040(%rsp),%rsi
  4026a3:	00 
  4026a4:	b9 00 04 00 00       	mov    $0x400,%ecx
  4026a9:	b8 00 00 00 00       	mov    $0x0,%eax
  4026ae:	48 89 f7             	mov    %rsi,%rdi
  4026b1:	f3 48 ab             	rep stos %rax,%es:(%rdi)
  4026b4:	4c 89 ef             	mov    %r13,%rdi
  4026b7:	e8 3b fc ff ff       	callq  4022f7 <urlencode>
  4026bc:	85 c0                	test   %eax,%eax
  4026be:	0f 89 8a 00 00 00    	jns    40274e <submitr+0x34a>
  4026c4:	48 b8 45 72 72 6f 72 	movabs $0x52203a726f727245,%rax
  4026cb:	3a 20 52 
  4026ce:	48 89 03             	mov    %rax,(%rbx)
  4026d1:	48 b8 65 73 75 6c 74 	movabs $0x747320746c757365,%rax
  4026d8:	20 73 74 
  4026db:	48 89 43 08          	mov    %rax,0x8(%rbx)
  4026df:	48 b8 72 69 6e 67 20 	movabs $0x6e6f6320676e6972,%rax
  4026e6:	63 6f 6e 
  4026e9:	48 89 43 10          	mov    %rax,0x10(%rbx)
  4026ed:	48 b8 74 61 69 6e 73 	movabs $0x6e6120736e696174,%rax
  4026f4:	20 61 6e 
  4026f7:	48 89 43 18          	mov    %rax,0x18(%rbx)
  4026fb:	48 b8 20 69 6c 6c 65 	movabs $0x6c6167656c6c6920,%rax
  402702:	67 61 6c 
  402705:	48 89 43 20          	mov    %rax,0x20(%rbx)
  402709:	48 b8 20 6f 72 20 75 	movabs $0x72706e7520726f20,%rax
  402710:	6e 70 72 
  402713:	48 89 43 28          	mov    %rax,0x28(%rbx)
  402717:	48 b8 69 6e 74 61 62 	movabs $0x20656c6261746e69,%rax
  40271e:	6c 65 20 
  402721:	48 89 43 30          	mov    %rax,0x30(%rbx)
  402725:	48 b8 63 68 61 72 61 	movabs $0x6574636172616863,%rax
  40272c:	63 74 65 
  40272f:	48 89 43 38          	mov    %rax,0x38(%rbx)
  402733:	66 c7 43 40 72 2e    	movw   $0x2e72,0x40(%rbx)
  402739:	c6 43 42 00          	movb   $0x0,0x42(%rbx)
  40273d:	89 ef                	mov    %ebp,%edi
  40273f:	e8 8c e5 ff ff       	callq  400cd0 <close@plt>
  402744:	b8 ff ff ff ff       	mov    $0xffffffff,%eax
  402749:	e9 bc 03 00 00       	jmpq   402b0a <submitr+0x706>
  40274e:	4c 89 64 24 08       	mov    %r12,0x8(%rsp)
  402753:	48 8d 84 24 40 20 00 	lea    0x2040(%rsp),%rax
  40275a:	00 
  40275b:	48 89 04 24          	mov    %rax,(%rsp)
  40275f:	4d 89 f9             	mov    %r15,%r9
  402762:	4d 89 f0             	mov    %r14,%r8
  402765:	b9 e8 35 40 00       	mov    $0x4035e8,%ecx
  40276a:	ba 00 20 00 00       	mov    $0x2000,%edx
  40276f:	be 01 00 00 00       	mov    $0x1,%esi
  402774:	48 8d 7c 24 40       	lea    0x40(%rsp),%rdi
  402779:	b8 00 00 00 00       	mov    $0x0,%eax
  40277e:	e8 9d e6 ff ff       	callq  400e20 <__sprintf_chk@plt>
  402783:	48 8d 7c 24 40       	lea    0x40(%rsp),%rdi
  402788:	b8 00 00 00 00       	mov    $0x0,%eax
  40278d:	48 c7 c1 ff ff ff ff 	mov    $0xffffffffffffffff,%rcx
  402794:	f2 ae                	repnz scas %es:(%rdi),%al
  402796:	48 f7 d1             	not    %rcx
  402799:	48 8d 51 ff          	lea    -0x1(%rcx),%rdx
  40279d:	48 8d 74 24 40       	lea    0x40(%rsp),%rsi
  4027a2:	89 ef                	mov    %ebp,%edi
  4027a4:	e8 e7 f9 ff ff       	callq  402190 <rio_writen>
  4027a9:	48 85 c0             	test   %rax,%rax
  4027ac:	79 6e                	jns    40281c <submitr+0x418>
  4027ae:	48 b8 45 72 72 6f 72 	movabs $0x43203a726f727245,%rax
  4027b5:	3a 20 43 
  4027b8:	48 89 03             	mov    %rax,(%rbx)
  4027bb:	48 b8 6c 69 65 6e 74 	movabs $0x6e7520746e65696c,%rax
  4027c2:	20 75 6e 
  4027c5:	48 89 43 08          	mov    %rax,0x8(%rbx)
  4027c9:	48 b8 61 62 6c 65 20 	movabs $0x206f7420656c6261,%rax
  4027d0:	74 6f 20 
  4027d3:	48 89 43 10          	mov    %rax,0x10(%rbx)
  4027d7:	48 b8 77 72 69 74 65 	movabs $0x6f74206574697277,%rax
  4027de:	20 74 6f 
  4027e1:	48 89 43 18          	mov    %rax,0x18(%rbx)
  4027e5:	48 b8 20 74 68 65 20 	movabs $0x7365722065687420,%rax
  4027ec:	72 65 73 
  4027ef:	48 89 43 20          	mov    %rax,0x20(%rbx)
  4027f3:	48 b8 75 6c 74 20 73 	movabs $0x7672657320746c75,%rax
  4027fa:	65 72 76 
  4027fd:	48 89 43 28          	mov    %rax,0x28(%rbx)
  402801:	66 c7 43 30 65 72    	movw   $0x7265,0x30(%rbx)
  402807:	c6 43 32 00          	movb   $0x0,0x32(%rbx)
  40280b:	89 ef                	mov    %ebp,%edi
  40280d:	e8 be e4 ff ff       	callq  400cd0 <close@plt>
  402812:	b8 ff ff ff ff       	mov    $0xffffffff,%eax
  402817:	e9 ee 02 00 00       	jmpq   402b0a <submitr+0x706>
  40281c:	89 ee                	mov    %ebp,%esi
  40281e:	48 8d bc 24 40 80 00 	lea    0x8040(%rsp),%rdi
  402825:	00 
  402826:	e8 25 f9 ff ff       	callq  402150 <rio_readinitb>
  40282b:	ba 00 20 00 00       	mov    $0x2000,%edx
  402830:	48 8d 74 24 40       	lea    0x40(%rsp),%rsi
  402835:	48 8d bc 24 40 80 00 	lea    0x8040(%rsp),%rdi
  40283c:	00 
  40283d:	e8 31 fa ff ff       	callq  402273 <rio_readlineb>
  402842:	48 85 c0             	test   %rax,%rax
  402845:	7f 7d                	jg     4028c4 <submitr+0x4c0>
  402847:	48 b8 45 72 72 6f 72 	movabs $0x43203a726f727245,%rax
  40284e:	3a 20 43 
  402851:	48 89 03             	mov    %rax,(%rbx)
  402854:	48 b8 6c 69 65 6e 74 	movabs $0x6e7520746e65696c,%rax
  40285b:	20 75 6e 
  40285e:	48 89 43 08          	mov    %rax,0x8(%rbx)
  402862:	48 b8 61 62 6c 65 20 	movabs $0x206f7420656c6261,%rax
  402869:	74 6f 20 
  40286c:	48 89 43 10          	mov    %rax,0x10(%rbx)
  402870:	48 b8 72 65 61 64 20 	movabs $0x7269662064616572,%rax
  402877:	66 69 72 
  40287a:	48 89 43 18          	mov    %rax,0x18(%rbx)
  40287e:	48 b8 73 74 20 68 65 	movabs $0x6564616568207473,%rax
  402885:	61 64 65 
  402888:	48 89 43 20          	mov    %rax,0x20(%rbx)
  40288c:	48 b8 72 20 66 72 6f 	movabs $0x72206d6f72662072,%rax
  402893:	6d 20 72 
  402896:	48 89 43 28          	mov    %rax,0x28(%rbx)
  40289a:	48 b8 65 73 75 6c 74 	movabs $0x657320746c757365,%rax
  4028a1:	20 73 65 
  4028a4:	48 89 43 30          	mov    %rax,0x30(%rbx)
  4028a8:	c7 43 38 72 76 65 72 	movl   $0x72657672,0x38(%rbx)
  4028af:	c6 43 3c 00          	movb   $0x0,0x3c(%rbx)
  4028b3:	89 ef                	mov    %ebp,%edi
  4028b5:	e8 16 e4 ff ff       	callq  400cd0 <close@plt>
  4028ba:	b8 ff ff ff ff       	mov    $0xffffffff,%eax
  4028bf:	e9 46 02 00 00       	jmpq   402b0a <submitr+0x706>
  4028c4:	4c 8d 84 24 40 60 00 	lea    0x6040(%rsp),%r8
  4028cb:	00 
  4028cc:	48 8d 4c 24 2c       	lea    0x2c(%rsp),%rcx
  4028d1:	48 8d 94 24 40 40 00 	lea    0x4040(%rsp),%rdx
  4028d8:	00 
  4028d9:	be 5f 36 40 00       	mov    $0x40365f,%esi
  4028de:	48 8d 7c 24 40       	lea    0x40(%rsp),%rdi
  4028e3:	b8 00 00 00 00       	mov    $0x0,%eax
  4028e8:	e8 93 e4 ff ff       	callq  400d80 <__isoc99_sscanf@plt>
  4028ed:	e9 95 00 00 00       	jmpq   402987 <submitr+0x583>
  4028f2:	ba 00 20 00 00       	mov    $0x2000,%edx
  4028f7:	48 8d 74 24 40       	lea    0x40(%rsp),%rsi
  4028fc:	48 8d bc 24 40 80 00 	lea    0x8040(%rsp),%rdi
  402903:	00 
  402904:	e8 6a f9 ff ff       	callq  402273 <rio_readlineb>
  402909:	48 85 c0             	test   %rax,%rax
  40290c:	7f 79                	jg     402987 <submitr+0x583>
  40290e:	48 b8 45 72 72 6f 72 	movabs $0x43203a726f727245,%rax
  402915:	3a 20 43 
  402918:	48 89 03             	mov    %rax,(%rbx)
  40291b:	48 b8 6c 69 65 6e 74 	movabs $0x6e7520746e65696c,%rax
  402922:	20 75 6e 
  402925:	48 89 43 08          	mov    %rax,0x8(%rbx)
  402929:	48 b8 61 62 6c 65 20 	movabs $0x206f7420656c6261,%rax
  402930:	74 6f 20 
  402933:	48 89 43 10          	mov    %rax,0x10(%rbx)
  402937:	48 b8 72 65 61 64 20 	movabs $0x6165682064616572,%rax
  40293e:	68 65 61 
  402941:	48 89 43 18          	mov    %rax,0x18(%rbx)
  402945:	48 b8 64 65 72 73 20 	movabs $0x6f72662073726564,%rax
  40294c:	66 72 6f 
  40294f:	48 89 43 20          	mov    %rax,0x20(%rbx)
  402953:	48 b8 6d 20 74 68 65 	movabs $0x657220656874206d,%rax
  40295a:	20 72 65 
  40295d:	48 89 43 28          	mov    %rax,0x28(%rbx)
  402961:	48 b8 73 75 6c 74 20 	movabs $0x72657320746c7573,%rax
  402968:	73 65 72 
  40296b:	48 89 43 30          	mov    %rax,0x30(%rbx)
  40296f:	c7 43 38 76 65 72 00 	movl   $0x726576,0x38(%rbx)
  402976:	89 ef                	mov    %ebp,%edi
  402978:	e8 53 e3 ff ff       	callq  400cd0 <close@plt>
  40297d:	b8 ff ff ff ff       	mov    $0xffffffff,%eax
  402982:	e9 83 01 00 00       	jmpq   402b0a <submitr+0x706>
  402987:	0f b6 44 24 40       	movzbl 0x40(%rsp),%eax
  40298c:	83 e8 0d             	sub    $0xd,%eax
  40298f:	75 0f                	jne    4029a0 <submitr+0x59c>
  402991:	0f b6 44 24 41       	movzbl 0x41(%rsp),%eax
  402996:	83 e8 0a             	sub    $0xa,%eax
  402999:	75 05                	jne    4029a0 <submitr+0x59c>
  40299b:	0f b6 44 24 42       	movzbl 0x42(%rsp),%eax
  4029a0:	85 c0                	test   %eax,%eax
  4029a2:	0f 85 4a ff ff ff    	jne    4028f2 <submitr+0x4ee>
  4029a8:	ba 00 20 00 00       	mov    $0x2000,%edx
  4029ad:	48 8d 74 24 40       	lea    0x40(%rsp),%rsi
  4029b2:	48 8d bc 24 40 80 00 	lea    0x8040(%rsp),%rdi
  4029b9:	00 
  4029ba:	e8 b4 f8 ff ff       	callq  402273 <rio_readlineb>
  4029bf:	48 85 c0             	test   %rax,%rax
  4029c2:	0f 8f 83 00 00 00    	jg     402a4b <submitr+0x647>
  4029c8:	48 b8 45 72 72 6f 72 	movabs $0x43203a726f727245,%rax
  4029cf:	3a 20 43 
  4029d2:	48 89 03             	mov    %rax,(%rbx)
  4029d5:	48 b8 6c 69 65 6e 74 	movabs $0x6e7520746e65696c,%rax
  4029dc:	20 75 6e 
  4029df:	48 89 43 08          	mov    %rax,0x8(%rbx)
  4029e3:	48 b8 61 62 6c 65 20 	movabs $0x206f7420656c6261,%rax
  4029ea:	74 6f 20 
  4029ed:	48 89 43 10          	mov    %rax,0x10(%rbx)
  4029f1:	48 b8 72 65 61 64 20 	movabs $0x6174732064616572,%rax
  4029f8:	73 74 61 
  4029fb:	48 89 43 18          	mov    %rax,0x18(%rbx)
  4029ff:	48 b8 74 75 73 20 6d 	movabs $0x7373656d20737574,%rax
  402a06:	65 73 73 
  402a09:	48 89 43 20          	mov    %rax,0x20(%rbx)
  402a0d:	48 b8 61 67 65 20 66 	movabs $0x6d6f726620656761,%rax
  402a14:	72 6f 6d 
  402a17:	48 89 43 28          	mov    %rax,0x28(%rbx)
  402a1b:	48 b8 20 72 65 73 75 	movabs $0x20746c7573657220,%rax
  402a22:	6c 74 20 
  402a25:	48 89 43 30          	mov    %rax,0x30(%rbx)
  402a29:	c7 43 38 73 65 72 76 	movl   $0x76726573,0x38(%rbx)
  402a30:	66 c7 43 3c 65 72    	movw   $0x7265,0x3c(%rbx)
  402a36:	c6 43 3e 00          	movb   $0x0,0x3e(%rbx)
  402a3a:	89 ef                	mov    %ebp,%edi
  402a3c:	e8 8f e2 ff ff       	callq  400cd0 <close@plt>
  402a41:	b8 ff ff ff ff       	mov    $0xffffffff,%eax
  402a46:	e9 bf 00 00 00       	jmpq   402b0a <submitr+0x706>
  402a4b:	44 8b 44 24 2c       	mov    0x2c(%rsp),%r8d
  402a50:	41 81 f8 c8 00 00 00 	cmp    $0xc8,%r8d
  402a57:	74 34                	je     402a8d <submitr+0x689>
  402a59:	4c 8d 8c 24 40 60 00 	lea    0x6040(%rsp),%r9
  402a60:	00 
  402a61:	b9 28 36 40 00       	mov    $0x403628,%ecx
  402a66:	48 c7 c2 ff ff ff ff 	mov    $0xffffffffffffffff,%rdx
  402a6d:	be 01 00 00 00       	mov    $0x1,%esi
  402a72:	48 89 df             	mov    %rbx,%rdi
  402a75:	b8 00 00 00 00       	mov    $0x0,%eax
  402a7a:	e8 a1 e3 ff ff       	callq  400e20 <__sprintf_chk@plt>
  402a7f:	89 ef                	mov    %ebp,%edi
  402a81:	e8 4a e2 ff ff       	callq  400cd0 <close@plt>
  402a86:	b8 ff ff ff ff       	mov    $0xffffffff,%eax
  402a8b:	eb 7d                	jmp    402b0a <submitr+0x706>
  402a8d:	48 8d 74 24 40       	lea    0x40(%rsp),%rsi
  402a92:	48 89 df             	mov    %rbx,%rdi
  402a95:	e8 c6 e1 ff ff       	callq  400c60 <strcpy@plt>
  402a9a:	89 ef                	mov    %ebp,%edi
  402a9c:	e8 2f e2 ff ff       	callq  400cd0 <close@plt>
  402aa1:	0f b6 03             	movzbl (%rbx),%eax
  402aa4:	83 e8 4f             	sub    $0x4f,%eax
  402aa7:	75 18                	jne    402ac1 <submitr+0x6bd>
  402aa9:	0f b6 53 01          	movzbl 0x1(%rbx),%edx
  402aad:	83 ea 4b             	sub    $0x4b,%edx
  402ab0:	75 11                	jne    402ac3 <submitr+0x6bf>
  402ab2:	0f b6 53 02          	movzbl 0x2(%rbx),%edx
  402ab6:	83 ea 0a             	sub    $0xa,%edx
  402ab9:	75 08                	jne    402ac3 <submitr+0x6bf>
  402abb:	0f b6 53 03          	movzbl 0x3(%rbx),%edx
  402abf:	eb 02                	jmp    402ac3 <submitr+0x6bf>
  402ac1:	89 c2                	mov    %eax,%edx
  402ac3:	85 d2                	test   %edx,%edx
  402ac5:	74 30                	je     402af7 <submitr+0x6f3>
  402ac7:	bf 70 36 40 00       	mov    $0x403670,%edi
  402acc:	b9 05 00 00 00       	mov    $0x5,%ecx
  402ad1:	48 89 de             	mov    %rbx,%rsi
  402ad4:	f3 a6                	repz cmpsb %es:(%rdi),%ds:(%rsi)
  402ad6:	0f 97 c1             	seta   %cl
  402ad9:	0f 92 c2             	setb   %dl
  402adc:	38 d1                	cmp    %dl,%cl
  402ade:	74 1e                	je     402afe <submitr+0x6fa>
  402ae0:	85 c0                	test   %eax,%eax
  402ae2:	75 0d                	jne    402af1 <submitr+0x6ed>
  402ae4:	0f b6 43 01          	movzbl 0x1(%rbx),%eax
  402ae8:	83 e8 4b             	sub    $0x4b,%eax
  402aeb:	75 04                	jne    402af1 <submitr+0x6ed>
  402aed:	0f b6 43 02          	movzbl 0x2(%rbx),%eax
  402af1:	85 c0                	test   %eax,%eax
  402af3:	75 10                	jne    402b05 <submitr+0x701>
  402af5:	eb 13                	jmp    402b0a <submitr+0x706>
  402af7:	b8 00 00 00 00       	mov    $0x0,%eax
  402afc:	eb 0c                	jmp    402b0a <submitr+0x706>
  402afe:	b8 00 00 00 00       	mov    $0x0,%eax
  402b03:	eb 05                	jmp    402b0a <submitr+0x706>
  402b05:	b8 ff ff ff ff       	mov    $0xffffffff,%eax
  402b0a:	48 8b 9c 24 58 a0 00 	mov    0xa058(%rsp),%rbx
  402b11:	00 
  402b12:	64 48 33 1c 25 28 00 	xor    %fs:0x28,%rbx
  402b19:	00 00 
  402b1b:	74 05                	je     402b22 <submitr+0x71e>
  402b1d:	e8 6e e1 ff ff       	callq  400c90 <__stack_chk_fail@plt>
  402b22:	48 81 c4 68 a0 00 00 	add    $0xa068,%rsp
  402b29:	5b                   	pop    %rbx
  402b2a:	5d                   	pop    %rbp
  402b2b:	41 5c                	pop    %r12
  402b2d:	41 5d                	pop    %r13
  402b2f:	41 5e                	pop    %r14
  402b31:	41 5f                	pop    %r15
  402b33:	c3                   	retq   

0000000000402b34 <init_timeout>:
  402b34:	53                   	push   %rbx
  402b35:	89 fb                	mov    %edi,%ebx
  402b37:	85 ff                	test   %edi,%edi
  402b39:	74 1f                	je     402b5a <init_timeout+0x26>
  402b3b:	85 ff                	test   %edi,%edi
  402b3d:	79 05                	jns    402b44 <init_timeout+0x10>
  402b3f:	bb 00 00 00 00       	mov    $0x0,%ebx
  402b44:	be 62 21 40 00       	mov    $0x402162,%esi
  402b49:	bf 0e 00 00 00       	mov    $0xe,%edi
  402b4e:	e8 ad e1 ff ff       	callq  400d00 <signal@plt>
  402b53:	89 df                	mov    %ebx,%edi
  402b55:	e8 66 e1 ff ff       	callq  400cc0 <alarm@plt>
  402b5a:	5b                   	pop    %rbx
  402b5b:	c3                   	retq   

0000000000402b5c <init_driver>:
  402b5c:	55                   	push   %rbp
  402b5d:	53                   	push   %rbx
  402b5e:	48 83 ec 28          	sub    $0x28,%rsp
  402b62:	48 89 fd             	mov    %rdi,%rbp
  402b65:	64 48 8b 04 25 28 00 	mov    %fs:0x28,%rax
  402b6c:	00 00 
  402b6e:	48 89 44 24 18       	mov    %rax,0x18(%rsp)
  402b73:	31 c0                	xor    %eax,%eax
  402b75:	be 01 00 00 00       	mov    $0x1,%esi
  402b7a:	bf 0d 00 00 00       	mov    $0xd,%edi
  402b7f:	e8 7c e1 ff ff       	callq  400d00 <signal@plt>
  402b84:	be 01 00 00 00       	mov    $0x1,%esi
  402b89:	bf 1d 00 00 00       	mov    $0x1d,%edi
  402b8e:	e8 6d e1 ff ff       	callq  400d00 <signal@plt>
  402b93:	be 01 00 00 00       	mov    $0x1,%esi
  402b98:	bf 1d 00 00 00       	mov    $0x1d,%edi
  402b9d:	e8 5e e1 ff ff       	callq  400d00 <signal@plt>
  402ba2:	ba 00 00 00 00       	mov    $0x0,%edx
  402ba7:	be 01 00 00 00       	mov    $0x1,%esi
  402bac:	bf 02 00 00 00       	mov    $0x2,%edi
  402bb1:	e8 7a e2 ff ff       	callq  400e30 <socket@plt>
  402bb6:	89 c3                	mov    %eax,%ebx
  402bb8:	85 c0                	test   %eax,%eax
  402bba:	79 4f                	jns    402c0b <init_driver+0xaf>
  402bbc:	48 b8 45 72 72 6f 72 	movabs $0x43203a726f727245,%rax
  402bc3:	3a 20 43 
  402bc6:	48 89 45 00          	mov    %rax,0x0(%rbp)
  402bca:	48 b8 6c 69 65 6e 74 	movabs $0x6e7520746e65696c,%rax
  402bd1:	20 75 6e 
  402bd4:	48 89 45 08          	mov    %rax,0x8(%rbp)
  402bd8:	48 b8 61 62 6c 65 20 	movabs $0x206f7420656c6261,%rax
  402bdf:	74 6f 20 
  402be2:	48 89 45 10          	mov    %rax,0x10(%rbp)
  402be6:	48 b8 63 72 65 61 74 	movabs $0x7320657461657263,%rax
  402bed:	65 20 73 
  402bf0:	48 89 45 18          	mov    %rax,0x18(%rbp)
  402bf4:	c7 45 20 6f 63 6b 65 	movl   $0x656b636f,0x20(%rbp)
  402bfb:	66 c7 45 24 74 00    	movw   $0x74,0x24(%rbp)
  402c01:	b8 ff ff ff ff       	mov    $0xffffffff,%eax
  402c06:	e9 28 01 00 00       	jmpq   402d33 <init_driver+0x1d7>
  402c0b:	bf 75 36 40 00       	mov    $0x403675,%edi
  402c10:	e8 fb e0 ff ff       	callq  400d10 <gethostbyname@plt>
  402c15:	48 85 c0             	test   %rax,%rax
  402c18:	75 68                	jne    402c82 <init_driver+0x126>
  402c1a:	48 b8 45 72 72 6f 72 	movabs $0x44203a726f727245,%rax
  402c21:	3a 20 44 
  402c24:	48 89 45 00          	mov    %rax,0x0(%rbp)
  402c28:	48 b8 4e 53 20 69 73 	movabs $0x6e7520736920534e,%rax
  402c2f:	20 75 6e 
  402c32:	48 89 45 08          	mov    %rax,0x8(%rbp)
  402c36:	48 b8 61 62 6c 65 20 	movabs $0x206f7420656c6261,%rax
  402c3d:	74 6f 20 
  402c40:	48 89 45 10          	mov    %rax,0x10(%rbp)
  402c44:	48 b8 72 65 73 6f 6c 	movabs $0x2065766c6f736572,%rax
  402c4b:	76 65 20 
  402c4e:	48 89 45 18          	mov    %rax,0x18(%rbp)
  402c52:	48 b8 73 65 72 76 65 	movabs $0x6120726576726573,%rax
  402c59:	72 20 61 
  402c5c:	48 89 45 20          	mov    %rax,0x20(%rbp)
  402c60:	c7 45 28 64 64 72 65 	movl   $0x65726464,0x28(%rbp)
  402c67:	66 c7 45 2c 73 73    	movw   $0x7373,0x2c(%rbp)
  402c6d:	c6 45 2e 00          	movb   $0x0,0x2e(%rbp)
  402c71:	89 df                	mov    %ebx,%edi
  402c73:	e8 58 e0 ff ff       	callq  400cd0 <close@plt>
  402c78:	b8 ff ff ff ff       	mov    $0xffffffff,%eax
  402c7d:	e9 b1 00 00 00       	jmpq   402d33 <init_driver+0x1d7>
  402c82:	48 c7 04 24 00 00 00 	movq   $0x0,(%rsp)
  402c89:	00 
  402c8a:	48 c7 44 24 08 00 00 	movq   $0x0,0x8(%rsp)
  402c91:	00 00 
  402c93:	66 c7 04 24 02 00    	movw   $0x2,(%rsp)
  402c99:	48 63 50 14          	movslq 0x14(%rax),%rdx
  402c9d:	48 8b 40 18          	mov    0x18(%rax),%rax
  402ca1:	48 8b 30             	mov    (%rax),%rsi
  402ca4:	48 8d 7c 24 04       	lea    0x4(%rsp),%rdi
  402ca9:	b9 0c 00 00 00       	mov    $0xc,%ecx
  402cae:	e8 6d e0 ff ff       	callq  400d20 <__memmove_chk@plt>
  402cb3:	66 c7 44 24 02 27 17 	movw   $0x1727,0x2(%rsp)
  402cba:	ba 10 00 00 00       	mov    $0x10,%edx
  402cbf:	48 89 e6             	mov    %rsp,%rsi
  402cc2:	89 df                	mov    %ebx,%edi
  402cc4:	e8 37 e1 ff ff       	callq  400e00 <connect@plt>
  402cc9:	85 c0                	test   %eax,%eax
  402ccb:	79 50                	jns    402d1d <init_driver+0x1c1>
  402ccd:	48 b8 45 72 72 6f 72 	movabs $0x55203a726f727245,%rax
  402cd4:	3a 20 55 
  402cd7:	48 89 45 00          	mov    %rax,0x0(%rbp)
  402cdb:	48 b8 6e 61 62 6c 65 	movabs $0x6f7420656c62616e,%rax
  402ce2:	20 74 6f 
  402ce5:	48 89 45 08          	mov    %rax,0x8(%rbp)
  402ce9:	48 b8 20 63 6f 6e 6e 	movabs $0x7463656e6e6f6320,%rax
  402cf0:	65 63 74 
  402cf3:	48 89 45 10          	mov    %rax,0x10(%rbp)
  402cf7:	48 b8 20 74 6f 20 73 	movabs $0x76726573206f7420,%rax
  402cfe:	65 72 76 
  402d01:	48 89 45 18          	mov    %rax,0x18(%rbp)
  402d05:	66 c7 45 20 65 72    	movw   $0x7265,0x20(%rbp)
  402d0b:	c6 45 22 00          	movb   $0x0,0x22(%rbp)
  402d0f:	89 df                	mov    %ebx,%edi
  402d11:	e8 ba df ff ff       	callq  400cd0 <close@plt>
  402d16:	b8 ff ff ff ff       	mov    $0xffffffff,%eax
  402d1b:	eb 16                	jmp    402d33 <init_driver+0x1d7>
  402d1d:	89 df                	mov    %ebx,%edi
  402d1f:	e8 ac df ff ff       	callq  400cd0 <close@plt>
  402d24:	66 c7 45 00 4f 4b    	movw   $0x4b4f,0x0(%rbp)
  402d2a:	c6 45 02 00          	movb   $0x0,0x2(%rbp)
  402d2e:	b8 00 00 00 00       	mov    $0x0,%eax
  402d33:	48 8b 4c 24 18       	mov    0x18(%rsp),%rcx
  402d38:	64 48 33 0c 25 28 00 	xor    %fs:0x28,%rcx
  402d3f:	00 00 
  402d41:	74 05                	je     402d48 <init_driver+0x1ec>
  402d43:	e8 48 df ff ff       	callq  400c90 <__stack_chk_fail@plt>
  402d48:	48 83 c4 28          	add    $0x28,%rsp
  402d4c:	5b                   	pop    %rbx
  402d4d:	5d                   	pop    %rbp
  402d4e:	c3                   	retq   

0000000000402d4f <driver_post>:
  402d4f:	53                   	push   %rbx
  402d50:	48 83 ec 10          	sub    $0x10,%rsp
  402d54:	4c 89 cb             	mov    %r9,%rbx
  402d57:	45 85 c0             	test   %r8d,%r8d
  402d5a:	74 27                	je     402d83 <driver_post+0x34>
  402d5c:	48 89 ca             	mov    %rcx,%rdx
  402d5f:	be 84 36 40 00       	mov    $0x403684,%esi
  402d64:	bf 01 00 00 00       	mov    $0x1,%edi
  402d69:	b8 00 00 00 00       	mov    $0x0,%eax
  402d6e:	e8 2d e0 ff ff       	callq  400da0 <__printf_chk@plt>
  402d73:	66 c7 03 4f 4b       	movw   $0x4b4f,(%rbx)
  402d78:	c6 43 02 00          	movb   $0x0,0x2(%rbx)
  402d7c:	b8 00 00 00 00       	mov    $0x0,%eax
  402d81:	eb 39                	jmp    402dbc <driver_post+0x6d>
  402d83:	48 85 ff             	test   %rdi,%rdi
  402d86:	74 26                	je     402dae <driver_post+0x5f>
  402d88:	80 3f 00             	cmpb   $0x0,(%rdi)
  402d8b:	74 21                	je     402dae <driver_post+0x5f>
  402d8d:	4c 89 0c 24          	mov    %r9,(%rsp)
  402d91:	49 89 c9             	mov    %rcx,%r9
  402d94:	49 89 d0             	mov    %rdx,%r8
  402d97:	48 89 f9             	mov    %rdi,%rcx
  402d9a:	48 89 f2             	mov    %rsi,%rdx
  402d9d:	be 17 27 00 00       	mov    $0x2717,%esi
  402da2:	bf 75 36 40 00       	mov    $0x403675,%edi
  402da7:	e8 58 f6 ff ff       	callq  402404 <submitr>
  402dac:	eb 0e                	jmp    402dbc <driver_post+0x6d>
  402dae:	66 c7 03 4f 4b       	movw   $0x4b4f,(%rbx)
  402db3:	c6 43 02 00          	movb   $0x0,0x2(%rbx)
  402db7:	b8 00 00 00 00       	mov    $0x0,%eax
  402dbc:	48 83 c4 10          	add    $0x10,%rsp
  402dc0:	5b                   	pop    %rbx
  402dc1:	c3                   	retq   
  402dc2:	90                   	nop
  402dc3:	90                   	nop

0000000000402dc4 <check>:
  402dc4:	89 f8                	mov    %edi,%eax
  402dc6:	c1 e8 1c             	shr    $0x1c,%eax
  402dc9:	85 c0                	test   %eax,%eax
  402dcb:	74 1d                	je     402dea <check+0x26>
  402dcd:	b9 00 00 00 00       	mov    $0x0,%ecx
  402dd2:	eb 0b                	jmp    402ddf <check+0x1b>
  402dd4:	89 f8                	mov    %edi,%eax
  402dd6:	d3 e8                	shr    %cl,%eax
  402dd8:	3c 0a                	cmp    $0xa,%al
  402dda:	74 14                	je     402df0 <check+0x2c>
  402ddc:	83 c1 08             	add    $0x8,%ecx
  402ddf:	83 f9 1f             	cmp    $0x1f,%ecx
  402de2:	7e f0                	jle    402dd4 <check+0x10>
  402de4:	b8 01 00 00 00       	mov    $0x1,%eax
  402de9:	c3                   	retq   
  402dea:	b8 00 00 00 00       	mov    $0x0,%eax
  402def:	c3                   	retq   
  402df0:	b8 00 00 00 00       	mov    $0x0,%eax
  402df5:	c3                   	retq   

0000000000402df6 <gencookie>:
  402df6:	53                   	push   %rbx
  402df7:	83 c7 01             	add    $0x1,%edi
  402dfa:	e8 41 de ff ff       	callq  400c40 <srandom@plt>
  402dff:	e8 5c df ff ff       	callq  400d60 <random@plt>
  402e04:	89 c3                	mov    %eax,%ebx
  402e06:	89 c7                	mov    %eax,%edi
  402e08:	e8 b7 ff ff ff       	callq  402dc4 <check>
  402e0d:	85 c0                	test   %eax,%eax
  402e0f:	74 ee                	je     402dff <gencookie+0x9>
  402e11:	89 d8                	mov    %ebx,%eax
  402e13:	5b                   	pop    %rbx
  402e14:	c3                   	retq   
  402e15:	90                   	nop
  402e16:	90                   	nop
  402e17:	90                   	nop
  402e18:	90                   	nop
  402e19:	90                   	nop
  402e1a:	90                   	nop
  402e1b:	90                   	nop
  402e1c:	90                   	nop
  402e1d:	90                   	nop
  402e1e:	90                   	nop
  402e1f:	90                   	nop

0000000000402e20 <__libc_csu_init>:
  402e20:	48 89 6c 24 d8       	mov    %rbp,-0x28(%rsp)
  402e25:	4c 89 64 24 e0       	mov    %r12,-0x20(%rsp)
  402e2a:	48 8d 2d cf 1f 20 00 	lea    0x201fcf(%rip),%rbp        # 604e00 <__do_global_dtors_aux_fini_array_entry>
  402e31:	4c 8d 25 c0 1f 20 00 	lea    0x201fc0(%rip),%r12        # 604df8 <__frame_dummy_init_array_entry>
  402e38:	4c 89 6c 24 e8       	mov    %r13,-0x18(%rsp)
  402e3d:	4c 89 74 24 f0       	mov    %r14,-0x10(%rsp)
  402e42:	4c 89 7c 24 f8       	mov    %r15,-0x8(%rsp)
  402e47:	48 89 5c 24 d0       	mov    %rbx,-0x30(%rsp)
  402e4c:	48 83 ec 38          	sub    $0x38,%rsp
  402e50:	4c 29 e5             	sub    %r12,%rbp
  402e53:	41 89 fd             	mov    %edi,%r13d
  402e56:	49 89 f6             	mov    %rsi,%r14
  402e59:	48 c1 fd 03          	sar    $0x3,%rbp
  402e5d:	49 89 d7             	mov    %rdx,%r15
  402e60:	e8 a3 dd ff ff       	callq  400c08 <_init>
  402e65:	48 85 ed             	test   %rbp,%rbp
  402e68:	74 1c                	je     402e86 <__libc_csu_init+0x66>
  402e6a:	31 db                	xor    %ebx,%ebx
  402e6c:	0f 1f 40 00          	nopl   0x0(%rax)
  402e70:	4c 89 fa             	mov    %r15,%rdx
  402e73:	4c 89 f6             	mov    %r14,%rsi
  402e76:	44 89 ef             	mov    %r13d,%edi
  402e79:	41 ff 14 dc          	callq  *(%r12,%rbx,8)
  402e7d:	48 83 c3 01          	add    $0x1,%rbx
  402e81:	48 39 eb             	cmp    %rbp,%rbx
  402e84:	75 ea                	jne    402e70 <__libc_csu_init+0x50>
  402e86:	48 8b 5c 24 08       	mov    0x8(%rsp),%rbx
  402e8b:	48 8b 6c 24 10       	mov    0x10(%rsp),%rbp
  402e90:	4c 8b 64 24 18       	mov    0x18(%rsp),%r12
  402e95:	4c 8b 6c 24 20       	mov    0x20(%rsp),%r13
  402e9a:	4c 8b 74 24 28       	mov    0x28(%rsp),%r14
  402e9f:	4c 8b 7c 24 30       	mov    0x30(%rsp),%r15
  402ea4:	48 83 c4 38          	add    $0x38,%rsp
  402ea8:	c3                   	retq   
  402ea9:	0f 1f 80 00 00 00 00 	nopl   0x0(%rax)

0000000000402eb0 <__libc_csu_fini>:
  402eb0:	f3 c3                	repz retq 
  402eb2:	90                   	nop
  402eb3:	90                   	nop

Disassembly of section .fini:

0000000000402eb4 <_fini>:
  402eb4:	48 83 ec 08          	sub    $0x8,%rsp
  402eb8:	48 83 c4 08          	add    $0x8,%rsp
  402ebc:	c3                   	retq   
